Archive member included to satisfy reference by file (symbol)

/usr/bin/../lib/gcc/arm-none-eabi/7.3.1/thumb/v6-m/libgcc.a(_udivsi3.o)
                              CMakeFiles/SnakeGame.elf.dir/Core/Src/system_stm32f0xx.c.obj (__aeabi_uidiv)
/usr/bin/../lib/gcc/arm-none-eabi/7.3.1/thumb/v6-m/libgcc.a(_divsi3.o)
                              CMakeFiles/SnakeGame.elf.dir/Drivers/Lib/Snake.c.obj (__aeabi_idivmod)
/usr/bin/../lib/gcc/arm-none-eabi/7.3.1/thumb/v6-m/libgcc.a(_dvmd_tls.o)
                              /usr/bin/../lib/gcc/arm-none-eabi/7.3.1/thumb/v6-m/libgcc.a(_udivsi3.o) (__aeabi_idiv0)
/usr/bin/../lib/gcc/arm-none-eabi/7.3.1/../../../../arm-none-eabi/lib/thumb/v6-m/libg.a(lib_a-errno.o)
                              CMakeFiles/SnakeGame.elf.dir/Core/Src/syscalls.c.obj (__errno)
/usr/bin/../lib/gcc/arm-none-eabi/7.3.1/../../../../arm-none-eabi/lib/thumb/v6-m/libg.a(lib_a-exit.o)
                              /usr/bin/../lib/gcc/arm-none-eabi/7.3.1/../../../../arm-none-eabi/lib/thumb/v6-m/crt0.o (exit)
/usr/bin/../lib/gcc/arm-none-eabi/7.3.1/../../../../arm-none-eabi/lib/thumb/v6-m/libg.a(lib_a-impure.o)
                              /usr/bin/../lib/gcc/arm-none-eabi/7.3.1/../../../../arm-none-eabi/lib/thumb/v6-m/libg.a(lib_a-exit.o) (_global_impure_ptr)
/usr/bin/../lib/gcc/arm-none-eabi/7.3.1/../../../../arm-none-eabi/lib/thumb/v6-m/libg.a(lib_a-init.o)
                              /usr/bin/../lib/gcc/arm-none-eabi/7.3.1/../../../../arm-none-eabi/lib/thumb/v6-m/crt0.o (__libc_init_array)
/usr/bin/../lib/gcc/arm-none-eabi/7.3.1/../../../../arm-none-eabi/lib/thumb/v6-m/libg.a(lib_a-memcpy-stub.o)
                              CMakeFiles/SnakeGame.elf.dir/Drivers/Lib/oled_driver.c.obj (memcpy)
/usr/bin/../lib/gcc/arm-none-eabi/7.3.1/../../../../arm-none-eabi/lib/thumb/v6-m/libg.a(lib_a-memset.o)
                              /usr/bin/../lib/gcc/arm-none-eabi/7.3.1/../../../../arm-none-eabi/lib/thumb/v6-m/crt0.o (memset)
/usr/bin/../lib/gcc/arm-none-eabi/7.3.1/../../../../arm-none-eabi/lib/thumb/v6-m/libg.a(lib_a-rand.o)
                              CMakeFiles/SnakeGame.elf.dir/Drivers/Lib/Snake.c.obj (rand)
/usr/bin/../lib/gcc/arm-none-eabi/7.3.1/../../../../arm-none-eabi/lib/thumb/v6-m/libg.a(lib_a-__call_atexit.o)
                              /usr/bin/../lib/gcc/arm-none-eabi/7.3.1/../../../../arm-none-eabi/lib/thumb/v6-m/libg.a(lib_a-exit.o) (__call_exitprocs)
/usr/bin/../lib/gcc/arm-none-eabi/7.3.1/../../../../arm-none-eabi/lib/thumb/v6-m/libg.a(lib_a-atexit.o)
                              /usr/bin/../lib/gcc/arm-none-eabi/7.3.1/../../../../arm-none-eabi/lib/thumb/v6-m/libg.a(lib_a-__call_atexit.o) (atexit)
/usr/bin/../lib/gcc/arm-none-eabi/7.3.1/../../../../arm-none-eabi/lib/thumb/v6-m/libg.a(lib_a-fini.o)
                              /usr/bin/../lib/gcc/arm-none-eabi/7.3.1/../../../../arm-none-eabi/lib/thumb/v6-m/libg.a(lib_a-__call_atexit.o) (__libc_fini_array)
/usr/bin/../lib/gcc/arm-none-eabi/7.3.1/../../../../arm-none-eabi/lib/thumb/v6-m/libg.a(lib_a-lock.o)
                              /usr/bin/../lib/gcc/arm-none-eabi/7.3.1/../../../../arm-none-eabi/lib/thumb/v6-m/libg.a(lib_a-__call_atexit.o) (__retarget_lock_acquire_recursive)
/usr/bin/../lib/gcc/arm-none-eabi/7.3.1/../../../../arm-none-eabi/lib/thumb/v6-m/libg.a(lib_a-__atexit.o)
                              /usr/bin/../lib/gcc/arm-none-eabi/7.3.1/../../../../arm-none-eabi/lib/thumb/v6-m/libg.a(lib_a-atexit.o) (__register_exitproc)
/usr/bin/../lib/gcc/arm-none-eabi/7.3.1/thumb/v6-m/libgcc.a(_muldi3.o)
                              /usr/bin/../lib/gcc/arm-none-eabi/7.3.1/../../../../arm-none-eabi/lib/thumb/v6-m/libg.a(lib_a-rand.o) (__aeabi_lmul)

Allocating common symbols
Common symbol       size              file

__lock___atexit_recursive_mutex
                    0x1               /usr/bin/../lib/gcc/arm-none-eabi/7.3.1/../../../../arm-none-eabi/lib/thumb/v6-m/libg.a(lib_a-lock.o)
__lock___arc4random_mutex
                    0x1               /usr/bin/../lib/gcc/arm-none-eabi/7.3.1/../../../../arm-none-eabi/lib/thumb/v6-m/libg.a(lib_a-lock.o)
__lock___env_recursive_mutex
                    0x1               /usr/bin/../lib/gcc/arm-none-eabi/7.3.1/../../../../arm-none-eabi/lib/thumb/v6-m/libg.a(lib_a-lock.o)
__lock___sinit_recursive_mutex
                    0x1               /usr/bin/../lib/gcc/arm-none-eabi/7.3.1/../../../../arm-none-eabi/lib/thumb/v6-m/libg.a(lib_a-lock.o)
__lock___malloc_recursive_mutex
                    0x1               /usr/bin/../lib/gcc/arm-none-eabi/7.3.1/../../../../arm-none-eabi/lib/thumb/v6-m/libg.a(lib_a-lock.o)
__lock___at_quick_exit_mutex
                    0x1               /usr/bin/../lib/gcc/arm-none-eabi/7.3.1/../../../../arm-none-eabi/lib/thumb/v6-m/libg.a(lib_a-lock.o)
__lock___dd_hash_mutex
                    0x1               /usr/bin/../lib/gcc/arm-none-eabi/7.3.1/../../../../arm-none-eabi/lib/thumb/v6-m/libg.a(lib_a-lock.o)
__lock___tz_mutex   0x1               /usr/bin/../lib/gcc/arm-none-eabi/7.3.1/../../../../arm-none-eabi/lib/thumb/v6-m/libg.a(lib_a-lock.o)
__lock___sfp_recursive_mutex
                    0x1               /usr/bin/../lib/gcc/arm-none-eabi/7.3.1/../../../../arm-none-eabi/lib/thumb/v6-m/libg.a(lib_a-lock.o)

Discarded input sections

 .text          0x0000000000000000        0x0 /usr/bin/../lib/gcc/arm-none-eabi/7.3.1/thumb/v6-m/crti.o
 .data          0x0000000000000000        0x0 /usr/bin/../lib/gcc/arm-none-eabi/7.3.1/thumb/v6-m/crti.o
 .bss           0x0000000000000000        0x0 /usr/bin/../lib/gcc/arm-none-eabi/7.3.1/thumb/v6-m/crti.o
 .data          0x0000000000000000        0x4 /usr/bin/../lib/gcc/arm-none-eabi/7.3.1/thumb/v6-m/crtbegin.o
 .text          0x0000000000000000       0x78 /usr/bin/../lib/gcc/arm-none-eabi/7.3.1/../../../../arm-none-eabi/lib/thumb/v6-m/crt0.o
 .data          0x0000000000000000        0x0 /usr/bin/../lib/gcc/arm-none-eabi/7.3.1/../../../../arm-none-eabi/lib/thumb/v6-m/crt0.o
 .bss           0x0000000000000000        0x0 /usr/bin/../lib/gcc/arm-none-eabi/7.3.1/../../../../arm-none-eabi/lib/thumb/v6-m/crt0.o
 .ARM.extab     0x0000000000000000        0x0 /usr/bin/../lib/gcc/arm-none-eabi/7.3.1/../../../../arm-none-eabi/lib/thumb/v6-m/crt0.o
 .ARM.exidx     0x0000000000000000        0x8 /usr/bin/../lib/gcc/arm-none-eabi/7.3.1/../../../../arm-none-eabi/lib/thumb/v6-m/crt0.o
 .ARM.attributes
                0x0000000000000000       0x1b /usr/bin/../lib/gcc/arm-none-eabi/7.3.1/../../../../arm-none-eabi/lib/thumb/v6-m/crt0.o
 .text          0x0000000000000000        0x0 CMakeFiles/SnakeGame.elf.dir/Core/Src/main.c.obj
 .data          0x0000000000000000        0x0 CMakeFiles/SnakeGame.elf.dir/Core/Src/main.c.obj
 .bss           0x0000000000000000        0x0 CMakeFiles/SnakeGame.elf.dir/Core/Src/main.c.obj
 .text.Error_Handler
                0x0000000000000000        0x2 CMakeFiles/SnakeGame.elf.dir/Core/Src/main.c.obj
 .text          0x0000000000000000        0x0 CMakeFiles/SnakeGame.elf.dir/Core/Src/stm32f0xx_it.c.obj
 .data          0x0000000000000000        0x0 CMakeFiles/SnakeGame.elf.dir/Core/Src/stm32f0xx_it.c.obj
 .bss           0x0000000000000000        0x0 CMakeFiles/SnakeGame.elf.dir/Core/Src/stm32f0xx_it.c.obj
 .text          0x0000000000000000        0x0 CMakeFiles/SnakeGame.elf.dir/Core/Src/syscalls.c.obj
 .data          0x0000000000000000        0x0 CMakeFiles/SnakeGame.elf.dir/Core/Src/syscalls.c.obj
 .bss           0x0000000000000000        0x0 CMakeFiles/SnakeGame.elf.dir/Core/Src/syscalls.c.obj
 .text.initialise_monitor_handles
                0x0000000000000000        0x2 CMakeFiles/SnakeGame.elf.dir/Core/Src/syscalls.c.obj
 .text._getpid  0x0000000000000000        0x4 CMakeFiles/SnakeGame.elf.dir/Core/Src/syscalls.c.obj
 .text._kill    0x0000000000000000       0x10 CMakeFiles/SnakeGame.elf.dir/Core/Src/syscalls.c.obj
 .text._exit    0x0000000000000000        0xc CMakeFiles/SnakeGame.elf.dir/Core/Src/syscalls.c.obj
 .text._read    0x0000000000000000       0x1c CMakeFiles/SnakeGame.elf.dir/Core/Src/syscalls.c.obj
 .text._write   0x0000000000000000       0x1c CMakeFiles/SnakeGame.elf.dir/Core/Src/syscalls.c.obj
 .text._sbrk    0x0000000000000000       0x3c CMakeFiles/SnakeGame.elf.dir/Core/Src/syscalls.c.obj
 .text._close   0x0000000000000000        0x6 CMakeFiles/SnakeGame.elf.dir/Core/Src/syscalls.c.obj
 .text._fstat   0x0000000000000000        0xa CMakeFiles/SnakeGame.elf.dir/Core/Src/syscalls.c.obj
 .text._isatty  0x0000000000000000        0x4 CMakeFiles/SnakeGame.elf.dir/Core/Src/syscalls.c.obj
 .text._lseek   0x0000000000000000        0x4 CMakeFiles/SnakeGame.elf.dir/Core/Src/syscalls.c.obj
 .text._open    0x0000000000000000        0xa CMakeFiles/SnakeGame.elf.dir/Core/Src/syscalls.c.obj
 .text._wait    0x0000000000000000       0x10 CMakeFiles/SnakeGame.elf.dir/Core/Src/syscalls.c.obj
 .text._unlink  0x0000000000000000       0x10 CMakeFiles/SnakeGame.elf.dir/Core/Src/syscalls.c.obj
 .text._times   0x0000000000000000        0x6 CMakeFiles/SnakeGame.elf.dir/Core/Src/syscalls.c.obj
 .text._stat    0x0000000000000000        0xa CMakeFiles/SnakeGame.elf.dir/Core/Src/syscalls.c.obj
 .text._link    0x0000000000000000       0x10 CMakeFiles/SnakeGame.elf.dir/Core/Src/syscalls.c.obj
 .text._fork    0x0000000000000000       0x10 CMakeFiles/SnakeGame.elf.dir/Core/Src/syscalls.c.obj
 .text._execve  0x0000000000000000       0x10 CMakeFiles/SnakeGame.elf.dir/Core/Src/syscalls.c.obj
 .bss.__env     0x0000000000000000        0x4 CMakeFiles/SnakeGame.elf.dir/Core/Src/syscalls.c.obj
 .bss.heap_end.5959
                0x0000000000000000        0x4 CMakeFiles/SnakeGame.elf.dir/Core/Src/syscalls.c.obj
 .data.environ  0x0000000000000000        0x4 CMakeFiles/SnakeGame.elf.dir/Core/Src/syscalls.c.obj
 .debug_info    0x0000000000000000      0xfcf CMakeFiles/SnakeGame.elf.dir/Core/Src/syscalls.c.obj
 .debug_abbrev  0x0000000000000000      0x2d1 CMakeFiles/SnakeGame.elf.dir/Core/Src/syscalls.c.obj
 .debug_loc     0x0000000000000000      0x3c5 CMakeFiles/SnakeGame.elf.dir/Core/Src/syscalls.c.obj
 .debug_aranges
                0x0000000000000000       0xb0 CMakeFiles/SnakeGame.elf.dir/Core/Src/syscalls.c.obj
 .debug_ranges  0x0000000000000000       0xa0 CMakeFiles/SnakeGame.elf.dir/Core/Src/syscalls.c.obj
 .debug_line    0x0000000000000000      0x2f8 CMakeFiles/SnakeGame.elf.dir/Core/Src/syscalls.c.obj
 .debug_str     0x0000000000000000      0x874 CMakeFiles/SnakeGame.elf.dir/Core/Src/syscalls.c.obj
 .comment       0x0000000000000000       0x80 CMakeFiles/SnakeGame.elf.dir/Core/Src/syscalls.c.obj
 .debug_frame   0x0000000000000000      0x19c CMakeFiles/SnakeGame.elf.dir/Core/Src/syscalls.c.obj
 .ARM.attributes
                0x0000000000000000       0x31 CMakeFiles/SnakeGame.elf.dir/Core/Src/syscalls.c.obj
 .text          0x0000000000000000        0x0 CMakeFiles/SnakeGame.elf.dir/Core/Src/system_stm32f0xx.c.obj
 .data          0x0000000000000000        0x0 CMakeFiles/SnakeGame.elf.dir/Core/Src/system_stm32f0xx.c.obj
 .bss           0x0000000000000000        0x0 CMakeFiles/SnakeGame.elf.dir/Core/Src/system_stm32f0xx.c.obj
 .text.SystemCoreClockUpdate
                0x0000000000000000       0x90 CMakeFiles/SnakeGame.elf.dir/Core/Src/system_stm32f0xx.c.obj
 .rodata.AHBPrescTable
                0x0000000000000000       0x10 CMakeFiles/SnakeGame.elf.dir/Core/Src/system_stm32f0xx.c.obj
 .rodata.APBPrescTable
                0x0000000000000000        0x8 CMakeFiles/SnakeGame.elf.dir/Core/Src/system_stm32f0xx.c.obj
 .text          0x0000000000000000        0x0 CMakeFiles/SnakeGame.elf.dir/Drivers/Lib/Point.c.obj
 .data          0x0000000000000000        0x0 CMakeFiles/SnakeGame.elf.dir/Drivers/Lib/Point.c.obj
 .bss           0x0000000000000000        0x0 CMakeFiles/SnakeGame.elf.dir/Drivers/Lib/Point.c.obj
 .text.drawPoint
                0x0000000000000000        0xe CMakeFiles/SnakeGame.elf.dir/Drivers/Lib/Point.c.obj
 .text          0x0000000000000000        0x0 CMakeFiles/SnakeGame.elf.dir/Drivers/Lib/Snake.c.obj
 .data          0x0000000000000000        0x0 CMakeFiles/SnakeGame.elf.dir/Drivers/Lib/Snake.c.obj
 .bss           0x0000000000000000        0x0 CMakeFiles/SnakeGame.elf.dir/Drivers/Lib/Snake.c.obj
 .text.push_pop
                0x0000000000000000       0x30 CMakeFiles/SnakeGame.elf.dir/Drivers/Lib/Snake.c.obj
 .text          0x0000000000000000        0x0 CMakeFiles/SnakeGame.elf.dir/Drivers/Lib/font5x7.c.obj
 .data          0x0000000000000000        0x0 CMakeFiles/SnakeGame.elf.dir/Drivers/Lib/font5x7.c.obj
 .bss           0x0000000000000000        0x0 CMakeFiles/SnakeGame.elf.dir/Drivers/Lib/font5x7.c.obj
 .text          0x0000000000000000        0x0 CMakeFiles/SnakeGame.elf.dir/Drivers/Lib/oled_driver.c.obj
 .data          0x0000000000000000        0x0 CMakeFiles/SnakeGame.elf.dir/Drivers/Lib/oled_driver.c.obj
 .bss           0x0000000000000000        0x0 CMakeFiles/SnakeGame.elf.dir/Drivers/Lib/oled_driver.c.obj
 .text.set_bpix
                0x0000000000000000       0x2a CMakeFiles/SnakeGame.elf.dir/Drivers/Lib/oled_driver.c.obj
 .text.get_bpix
                0x0000000000000000       0x1c CMakeFiles/SnakeGame.elf.dir/Drivers/Lib/oled_driver.c.obj
 .text.oled_set_cursor
                0x0000000000000000       0x14 CMakeFiles/SnakeGame.elf.dir/Drivers/Lib/oled_driver.c.obj
 .text.oled_pic
                0x0000000000000000       0x36 CMakeFiles/SnakeGame.elf.dir/Drivers/Lib/oled_driver.c.obj
 .text.oled_pic_dithering
                0x0000000000000000      0x160 CMakeFiles/SnakeGame.elf.dir/Drivers/Lib/oled_driver.c.obj
 .bss.buffer.6243
                0x0000000000000000      0x100 CMakeFiles/SnakeGame.elf.dir/Drivers/Lib/oled_driver.c.obj
 .text          0x0000000000000000        0x0 CMakeFiles/SnakeGame.elf.dir/Drivers/Lib/xprintf.c.obj
 .data          0x0000000000000000        0x0 CMakeFiles/SnakeGame.elf.dir/Drivers/Lib/xprintf.c.obj
 .bss           0x0000000000000000        0x0 CMakeFiles/SnakeGame.elf.dir/Drivers/Lib/xprintf.c.obj
 .text.xfputs   0x0000000000000000       0x24 CMakeFiles/SnakeGame.elf.dir/Drivers/Lib/xprintf.c.obj
 .text.xsprintf
                0x0000000000000000       0x2c CMakeFiles/SnakeGame.elf.dir/Drivers/Lib/xprintf.c.obj
 .text.xfprintf
                0x0000000000000000       0x28 CMakeFiles/SnakeGame.elf.dir/Drivers/Lib/xprintf.c.obj
 .text.put_dump
                0x0000000000000000       0x90 CMakeFiles/SnakeGame.elf.dir/Drivers/Lib/xprintf.c.obj
 .text.xgets    0x0000000000000000       0x60 CMakeFiles/SnakeGame.elf.dir/Drivers/Lib/xprintf.c.obj
 .text.xfgets   0x0000000000000000       0x1c CMakeFiles/SnakeGame.elf.dir/Drivers/Lib/xprintf.c.obj
 .text.xatoi    0x0000000000000000       0xbc CMakeFiles/SnakeGame.elf.dir/Drivers/Lib/xprintf.c.obj
 .bss.xfunc_in  0x0000000000000000        0x4 CMakeFiles/SnakeGame.elf.dir/Drivers/Lib/xprintf.c.obj
 .rodata.put_dump.str1.4
                0x0000000000000000       0x1f CMakeFiles/SnakeGame.elf.dir/Drivers/Lib/xprintf.c.obj
 .text          0x0000000000000000        0x0 CMakeFiles/SnakeGame.elf.dir/Drivers/STM32F0xx_HAL_Driver/Src/stm32f0xx_ll_dma.c.obj
 .data          0x0000000000000000        0x0 CMakeFiles/SnakeGame.elf.dir/Drivers/STM32F0xx_HAL_Driver/Src/stm32f0xx_ll_dma.c.obj
 .bss           0x0000000000000000        0x0 CMakeFiles/SnakeGame.elf.dir/Drivers/STM32F0xx_HAL_Driver/Src/stm32f0xx_ll_dma.c.obj
 .text.LL_DMA_DeInit
                0x0000000000000000       0xb0 CMakeFiles/SnakeGame.elf.dir/Drivers/STM32F0xx_HAL_Driver/Src/stm32f0xx_ll_dma.c.obj
 .text.LL_DMA_Init
                0x0000000000000000       0x50 CMakeFiles/SnakeGame.elf.dir/Drivers/STM32F0xx_HAL_Driver/Src/stm32f0xx_ll_dma.c.obj
 .text.LL_DMA_StructInit
                0x0000000000000000       0x18 CMakeFiles/SnakeGame.elf.dir/Drivers/STM32F0xx_HAL_Driver/Src/stm32f0xx_ll_dma.c.obj
 .rodata.CHANNEL_OFFSET_TAB
                0x0000000000000000        0x5 CMakeFiles/SnakeGame.elf.dir/Drivers/STM32F0xx_HAL_Driver/Src/stm32f0xx_ll_dma.c.obj
 .debug_info    0x0000000000000000      0x599 CMakeFiles/SnakeGame.elf.dir/Drivers/STM32F0xx_HAL_Driver/Src/stm32f0xx_ll_dma.c.obj
 .debug_abbrev  0x0000000000000000      0x1e7 CMakeFiles/SnakeGame.elf.dir/Drivers/STM32F0xx_HAL_Driver/Src/stm32f0xx_ll_dma.c.obj
 .debug_loc     0x0000000000000000      0x381 CMakeFiles/SnakeGame.elf.dir/Drivers/STM32F0xx_HAL_Driver/Src/stm32f0xx_ll_dma.c.obj
 .debug_aranges
                0x0000000000000000       0x30 CMakeFiles/SnakeGame.elf.dir/Drivers/STM32F0xx_HAL_Driver/Src/stm32f0xx_ll_dma.c.obj
 .debug_ranges  0x0000000000000000       0x20 CMakeFiles/SnakeGame.elf.dir/Drivers/STM32F0xx_HAL_Driver/Src/stm32f0xx_ll_dma.c.obj
 .debug_line    0x0000000000000000      0x2b9 CMakeFiles/SnakeGame.elf.dir/Drivers/STM32F0xx_HAL_Driver/Src/stm32f0xx_ll_dma.c.obj
 .debug_str     0x0000000000000000      0x48c CMakeFiles/SnakeGame.elf.dir/Drivers/STM32F0xx_HAL_Driver/Src/stm32f0xx_ll_dma.c.obj
 .comment       0x0000000000000000       0x80 CMakeFiles/SnakeGame.elf.dir/Drivers/STM32F0xx_HAL_Driver/Src/stm32f0xx_ll_dma.c.obj
 .debug_frame   0x0000000000000000       0x50 CMakeFiles/SnakeGame.elf.dir/Drivers/STM32F0xx_HAL_Driver/Src/stm32f0xx_ll_dma.c.obj
 .ARM.attributes
                0x0000000000000000       0x31 CMakeFiles/SnakeGame.elf.dir/Drivers/STM32F0xx_HAL_Driver/Src/stm32f0xx_ll_dma.c.obj
 .text          0x0000000000000000        0x0 CMakeFiles/SnakeGame.elf.dir/Drivers/STM32F0xx_HAL_Driver/Src/stm32f0xx_ll_exti.c.obj
 .data          0x0000000000000000        0x0 CMakeFiles/SnakeGame.elf.dir/Drivers/STM32F0xx_HAL_Driver/Src/stm32f0xx_ll_exti.c.obj
 .bss           0x0000000000000000        0x0 CMakeFiles/SnakeGame.elf.dir/Drivers/STM32F0xx_HAL_Driver/Src/stm32f0xx_ll_exti.c.obj
 .text.LL_EXTI_DeInit
                0x0000000000000000       0x24 CMakeFiles/SnakeGame.elf.dir/Drivers/STM32F0xx_HAL_Driver/Src/stm32f0xx_ll_exti.c.obj
 .text.LL_EXTI_StructInit
                0x0000000000000000        0xe CMakeFiles/SnakeGame.elf.dir/Drivers/STM32F0xx_HAL_Driver/Src/stm32f0xx_ll_exti.c.obj
 .text          0x0000000000000000        0x0 CMakeFiles/SnakeGame.elf.dir/Drivers/STM32F0xx_HAL_Driver/Src/stm32f0xx_ll_gpio.c.obj
 .data          0x0000000000000000        0x0 CMakeFiles/SnakeGame.elf.dir/Drivers/STM32F0xx_HAL_Driver/Src/stm32f0xx_ll_gpio.c.obj
 .bss           0x0000000000000000        0x0 CMakeFiles/SnakeGame.elf.dir/Drivers/STM32F0xx_HAL_Driver/Src/stm32f0xx_ll_gpio.c.obj
 .text.LL_GPIO_DeInit
                0x0000000000000000       0xc4 CMakeFiles/SnakeGame.elf.dir/Drivers/STM32F0xx_HAL_Driver/Src/stm32f0xx_ll_gpio.c.obj
 .text.LL_GPIO_StructInit
                0x0000000000000000       0x18 CMakeFiles/SnakeGame.elf.dir/Drivers/STM32F0xx_HAL_Driver/Src/stm32f0xx_ll_gpio.c.obj
 .text          0x0000000000000000        0x0 CMakeFiles/SnakeGame.elf.dir/Drivers/STM32F0xx_HAL_Driver/Src/stm32f0xx_ll_i2c.c.obj
 .data          0x0000000000000000        0x0 CMakeFiles/SnakeGame.elf.dir/Drivers/STM32F0xx_HAL_Driver/Src/stm32f0xx_ll_i2c.c.obj
 .bss           0x0000000000000000        0x0 CMakeFiles/SnakeGame.elf.dir/Drivers/STM32F0xx_HAL_Driver/Src/stm32f0xx_ll_i2c.c.obj
 .text.LL_I2C_DeInit
                0x0000000000000000       0x54 CMakeFiles/SnakeGame.elf.dir/Drivers/STM32F0xx_HAL_Driver/Src/stm32f0xx_ll_i2c.c.obj
 .text.LL_I2C_StructInit
                0x0000000000000000       0x16 CMakeFiles/SnakeGame.elf.dir/Drivers/STM32F0xx_HAL_Driver/Src/stm32f0xx_ll_i2c.c.obj
 .text          0x0000000000000000        0x0 CMakeFiles/SnakeGame.elf.dir/Drivers/STM32F0xx_HAL_Driver/Src/stm32f0xx_ll_pwr.c.obj
 .data          0x0000000000000000        0x0 CMakeFiles/SnakeGame.elf.dir/Drivers/STM32F0xx_HAL_Driver/Src/stm32f0xx_ll_pwr.c.obj
 .bss           0x0000000000000000        0x0 CMakeFiles/SnakeGame.elf.dir/Drivers/STM32F0xx_HAL_Driver/Src/stm32f0xx_ll_pwr.c.obj
 .text.LL_PWR_DeInit
                0x0000000000000000       0x20 CMakeFiles/SnakeGame.elf.dir/Drivers/STM32F0xx_HAL_Driver/Src/stm32f0xx_ll_pwr.c.obj
 .debug_info    0x0000000000000000      0x25d CMakeFiles/SnakeGame.elf.dir/Drivers/STM32F0xx_HAL_Driver/Src/stm32f0xx_ll_pwr.c.obj
 .debug_abbrev  0x0000000000000000      0x12c CMakeFiles/SnakeGame.elf.dir/Drivers/STM32F0xx_HAL_Driver/Src/stm32f0xx_ll_pwr.c.obj
 .debug_loc     0x0000000000000000       0x2c CMakeFiles/SnakeGame.elf.dir/Drivers/STM32F0xx_HAL_Driver/Src/stm32f0xx_ll_pwr.c.obj
 .debug_aranges
                0x0000000000000000       0x20 CMakeFiles/SnakeGame.elf.dir/Drivers/STM32F0xx_HAL_Driver/Src/stm32f0xx_ll_pwr.c.obj
 .debug_ranges  0x0000000000000000       0x10 CMakeFiles/SnakeGame.elf.dir/Drivers/STM32F0xx_HAL_Driver/Src/stm32f0xx_ll_pwr.c.obj
 .debug_line    0x0000000000000000      0x1e1 CMakeFiles/SnakeGame.elf.dir/Drivers/STM32F0xx_HAL_Driver/Src/stm32f0xx_ll_pwr.c.obj
 .debug_str     0x0000000000000000      0x2ea CMakeFiles/SnakeGame.elf.dir/Drivers/STM32F0xx_HAL_Driver/Src/stm32f0xx_ll_pwr.c.obj
 .comment       0x0000000000000000       0x80 CMakeFiles/SnakeGame.elf.dir/Drivers/STM32F0xx_HAL_Driver/Src/stm32f0xx_ll_pwr.c.obj
 .debug_frame   0x0000000000000000       0x20 CMakeFiles/SnakeGame.elf.dir/Drivers/STM32F0xx_HAL_Driver/Src/stm32f0xx_ll_pwr.c.obj
 .ARM.attributes
                0x0000000000000000       0x31 CMakeFiles/SnakeGame.elf.dir/Drivers/STM32F0xx_HAL_Driver/Src/stm32f0xx_ll_pwr.c.obj
 .text          0x0000000000000000        0x0 CMakeFiles/SnakeGame.elf.dir/Drivers/STM32F0xx_HAL_Driver/Src/stm32f0xx_ll_rcc.c.obj
 .data          0x0000000000000000        0x0 CMakeFiles/SnakeGame.elf.dir/Drivers/STM32F0xx_HAL_Driver/Src/stm32f0xx_ll_rcc.c.obj
 .bss           0x0000000000000000        0x0 CMakeFiles/SnakeGame.elf.dir/Drivers/STM32F0xx_HAL_Driver/Src/stm32f0xx_ll_rcc.c.obj
 .text.LL_RCC_DeInit
                0x0000000000000000       0xb4 CMakeFiles/SnakeGame.elf.dir/Drivers/STM32F0xx_HAL_Driver/Src/stm32f0xx_ll_rcc.c.obj
 .text.LL_RCC_GetCECClockFreq
                0x0000000000000000       0x34 CMakeFiles/SnakeGame.elf.dir/Drivers/STM32F0xx_HAL_Driver/Src/stm32f0xx_ll_rcc.c.obj
 .text.RCC_GetHCLKClockFreq
                0x0000000000000000       0x1c CMakeFiles/SnakeGame.elf.dir/Drivers/STM32F0xx_HAL_Driver/Src/stm32f0xx_ll_rcc.c.obj
 .text.RCC_GetPCLK1ClockFreq
                0x0000000000000000       0x1c CMakeFiles/SnakeGame.elf.dir/Drivers/STM32F0xx_HAL_Driver/Src/stm32f0xx_ll_rcc.c.obj
 .text.RCC_PLL_GetFreqDomain_SYS
                0x0000000000000000       0x3c CMakeFiles/SnakeGame.elf.dir/Drivers/STM32F0xx_HAL_Driver/Src/stm32f0xx_ll_rcc.c.obj
 .text.RCC_GetSystemClockFreq
                0x0000000000000000       0x20 CMakeFiles/SnakeGame.elf.dir/Drivers/STM32F0xx_HAL_Driver/Src/stm32f0xx_ll_rcc.c.obj
 .text.LL_RCC_GetSystemClocksFreq
                0x0000000000000000       0x18 CMakeFiles/SnakeGame.elf.dir/Drivers/STM32F0xx_HAL_Driver/Src/stm32f0xx_ll_rcc.c.obj
 .text.LL_RCC_GetUSARTClockFreq
                0x0000000000000000       0x5c CMakeFiles/SnakeGame.elf.dir/Drivers/STM32F0xx_HAL_Driver/Src/stm32f0xx_ll_rcc.c.obj
 .text.LL_RCC_GetI2CClockFreq
                0x0000000000000000       0x34 CMakeFiles/SnakeGame.elf.dir/Drivers/STM32F0xx_HAL_Driver/Src/stm32f0xx_ll_rcc.c.obj
 .debug_info    0x0000000000000000      0x70f CMakeFiles/SnakeGame.elf.dir/Drivers/STM32F0xx_HAL_Driver/Src/stm32f0xx_ll_rcc.c.obj
 .debug_abbrev  0x0000000000000000      0x23d CMakeFiles/SnakeGame.elf.dir/Drivers/STM32F0xx_HAL_Driver/Src/stm32f0xx_ll_rcc.c.obj
 .debug_loc     0x0000000000000000      0x32e CMakeFiles/SnakeGame.elf.dir/Drivers/STM32F0xx_HAL_Driver/Src/stm32f0xx_ll_rcc.c.obj
 .debug_aranges
                0x0000000000000000       0x60 CMakeFiles/SnakeGame.elf.dir/Drivers/STM32F0xx_HAL_Driver/Src/stm32f0xx_ll_rcc.c.obj
 .debug_ranges  0x0000000000000000       0x50 CMakeFiles/SnakeGame.elf.dir/Drivers/STM32F0xx_HAL_Driver/Src/stm32f0xx_ll_rcc.c.obj
 .debug_line    0x0000000000000000      0x3c5 CMakeFiles/SnakeGame.elf.dir/Drivers/STM32F0xx_HAL_Driver/Src/stm32f0xx_ll_rcc.c.obj
 .debug_str     0x0000000000000000      0x612 CMakeFiles/SnakeGame.elf.dir/Drivers/STM32F0xx_HAL_Driver/Src/stm32f0xx_ll_rcc.c.obj
 .comment       0x0000000000000000       0x80 CMakeFiles/SnakeGame.elf.dir/Drivers/STM32F0xx_HAL_Driver/Src/stm32f0xx_ll_rcc.c.obj
 .debug_frame   0x0000000000000000       0xd0 CMakeFiles/SnakeGame.elf.dir/Drivers/STM32F0xx_HAL_Driver/Src/stm32f0xx_ll_rcc.c.obj
 .ARM.attributes
                0x0000000000000000       0x31 CMakeFiles/SnakeGame.elf.dir/Drivers/STM32F0xx_HAL_Driver/Src/stm32f0xx_ll_rcc.c.obj
 .text          0x0000000000000000        0x0 CMakeFiles/SnakeGame.elf.dir/Drivers/STM32F0xx_HAL_Driver/Src/stm32f0xx_ll_utils.c.obj
 .data          0x0000000000000000        0x0 CMakeFiles/SnakeGame.elf.dir/Drivers/STM32F0xx_HAL_Driver/Src/stm32f0xx_ll_utils.c.obj
 .bss           0x0000000000000000        0x0 CMakeFiles/SnakeGame.elf.dir/Drivers/STM32F0xx_HAL_Driver/Src/stm32f0xx_ll_utils.c.obj
 .text.UTILS_GetPLLOutputFrequency
                0x0000000000000000       0x1a CMakeFiles/SnakeGame.elf.dir/Drivers/STM32F0xx_HAL_Driver/Src/stm32f0xx_ll_utils.c.obj
 .text.UTILS_PLL_IsBusy
                0x0000000000000000       0x14 CMakeFiles/SnakeGame.elf.dir/Drivers/STM32F0xx_HAL_Driver/Src/stm32f0xx_ll_utils.c.obj
 .text.LL_mDelay
                0x0000000000000000       0x28 CMakeFiles/SnakeGame.elf.dir/Drivers/STM32F0xx_HAL_Driver/Src/stm32f0xx_ll_utils.c.obj
 .text.LL_SetFlashLatency
                0x0000000000000000       0x48 CMakeFiles/SnakeGame.elf.dir/Drivers/STM32F0xx_HAL_Driver/Src/stm32f0xx_ll_utils.c.obj
 .text.UTILS_EnablePLLAndSwitchSystem
                0x0000000000000000       0xb0 CMakeFiles/SnakeGame.elf.dir/Drivers/STM32F0xx_HAL_Driver/Src/stm32f0xx_ll_utils.c.obj
 .text.LL_PLL_ConfigSystemClock_HSI
                0x0000000000000000       0x64 CMakeFiles/SnakeGame.elf.dir/Drivers/STM32F0xx_HAL_Driver/Src/stm32f0xx_ll_utils.c.obj
 .text.LL_PLL_ConfigSystemClock_HSE
                0x0000000000000000       0x8c CMakeFiles/SnakeGame.elf.dir/Drivers/STM32F0xx_HAL_Driver/Src/stm32f0xx_ll_utils.c.obj
 .text          0x0000000000000000       0x14 CMakeFiles/SnakeGame.elf.dir/startup/startup_stm32f051x8.s.obj
 .data          0x0000000000000000        0x0 CMakeFiles/SnakeGame.elf.dir/startup/startup_stm32f051x8.s.obj
 .bss           0x0000000000000000        0x0 CMakeFiles/SnakeGame.elf.dir/startup/startup_stm32f051x8.s.obj
 .data          0x0000000000000000        0x0 /usr/bin/../lib/gcc/arm-none-eabi/7.3.1/thumb/v6-m/libgcc.a(_udivsi3.o)
 .bss           0x0000000000000000        0x0 /usr/bin/../lib/gcc/arm-none-eabi/7.3.1/thumb/v6-m/libgcc.a(_udivsi3.o)
 .data          0x0000000000000000        0x0 /usr/bin/../lib/gcc/arm-none-eabi/7.3.1/thumb/v6-m/libgcc.a(_divsi3.o)
 .bss           0x0000000000000000        0x0 /usr/bin/../lib/gcc/arm-none-eabi/7.3.1/thumb/v6-m/libgcc.a(_divsi3.o)
 .data          0x0000000000000000        0x0 /usr/bin/../lib/gcc/arm-none-eabi/7.3.1/thumb/v6-m/libgcc.a(_dvmd_tls.o)
 .bss           0x0000000000000000        0x0 /usr/bin/../lib/gcc/arm-none-eabi/7.3.1/thumb/v6-m/libgcc.a(_dvmd_tls.o)
 .text          0x0000000000000000        0x0 /usr/bin/../lib/gcc/arm-none-eabi/7.3.1/../../../../arm-none-eabi/lib/thumb/v6-m/libg.a(lib_a-errno.o)
 .data          0x0000000000000000        0x0 /usr/bin/../lib/gcc/arm-none-eabi/7.3.1/../../../../arm-none-eabi/lib/thumb/v6-m/libg.a(lib_a-errno.o)
 .bss           0x0000000000000000        0x0 /usr/bin/../lib/gcc/arm-none-eabi/7.3.1/../../../../arm-none-eabi/lib/thumb/v6-m/libg.a(lib_a-errno.o)
 .text.__errno  0x0000000000000000        0xc /usr/bin/../lib/gcc/arm-none-eabi/7.3.1/../../../../arm-none-eabi/lib/thumb/v6-m/libg.a(lib_a-errno.o)
 .debug_frame   0x0000000000000000       0x20 /usr/bin/../lib/gcc/arm-none-eabi/7.3.1/../../../../arm-none-eabi/lib/thumb/v6-m/libg.a(lib_a-errno.o)
 .ARM.attributes
                0x0000000000000000       0x2c /usr/bin/../lib/gcc/arm-none-eabi/7.3.1/../../../../arm-none-eabi/lib/thumb/v6-m/libg.a(lib_a-errno.o)
 .text          0x0000000000000000        0x0 /usr/bin/../lib/gcc/arm-none-eabi/7.3.1/../../../../arm-none-eabi/lib/thumb/v6-m/libg.a(lib_a-exit.o)
 .data          0x0000000000000000        0x0 /usr/bin/../lib/gcc/arm-none-eabi/7.3.1/../../../../arm-none-eabi/lib/thumb/v6-m/libg.a(lib_a-exit.o)
 .bss           0x0000000000000000        0x0 /usr/bin/../lib/gcc/arm-none-eabi/7.3.1/../../../../arm-none-eabi/lib/thumb/v6-m/libg.a(lib_a-exit.o)
 .text.exit     0x0000000000000000       0x20 /usr/bin/../lib/gcc/arm-none-eabi/7.3.1/../../../../arm-none-eabi/lib/thumb/v6-m/libg.a(lib_a-exit.o)
 .debug_frame   0x0000000000000000       0x28 /usr/bin/../lib/gcc/arm-none-eabi/7.3.1/../../../../arm-none-eabi/lib/thumb/v6-m/libg.a(lib_a-exit.o)
 .ARM.attributes
                0x0000000000000000       0x2c /usr/bin/../lib/gcc/arm-none-eabi/7.3.1/../../../../arm-none-eabi/lib/thumb/v6-m/libg.a(lib_a-exit.o)
 .text          0x0000000000000000        0x0 /usr/bin/../lib/gcc/arm-none-eabi/7.3.1/../../../../arm-none-eabi/lib/thumb/v6-m/libg.a(lib_a-impure.o)
 .data          0x0000000000000000        0x0 /usr/bin/../lib/gcc/arm-none-eabi/7.3.1/../../../../arm-none-eabi/lib/thumb/v6-m/libg.a(lib_a-impure.o)
 .bss           0x0000000000000000        0x0 /usr/bin/../lib/gcc/arm-none-eabi/7.3.1/../../../../arm-none-eabi/lib/thumb/v6-m/libg.a(lib_a-impure.o)
 .text          0x0000000000000000        0x0 /usr/bin/../lib/gcc/arm-none-eabi/7.3.1/../../../../arm-none-eabi/lib/thumb/v6-m/libg.a(lib_a-init.o)
 .data          0x0000000000000000        0x0 /usr/bin/../lib/gcc/arm-none-eabi/7.3.1/../../../../arm-none-eabi/lib/thumb/v6-m/libg.a(lib_a-init.o)
 .bss           0x0000000000000000        0x0 /usr/bin/../lib/gcc/arm-none-eabi/7.3.1/../../../../arm-none-eabi/lib/thumb/v6-m/libg.a(lib_a-init.o)
 .text          0x0000000000000000        0x0 /usr/bin/../lib/gcc/arm-none-eabi/7.3.1/../../../../arm-none-eabi/lib/thumb/v6-m/libg.a(lib_a-memcpy-stub.o)
 .data          0x0000000000000000        0x0 /usr/bin/../lib/gcc/arm-none-eabi/7.3.1/../../../../arm-none-eabi/lib/thumb/v6-m/libg.a(lib_a-memcpy-stub.o)
 .bss           0x0000000000000000        0x0 /usr/bin/../lib/gcc/arm-none-eabi/7.3.1/../../../../arm-none-eabi/lib/thumb/v6-m/libg.a(lib_a-memcpy-stub.o)
 .text.memcpy   0x0000000000000000       0x88 /usr/bin/../lib/gcc/arm-none-eabi/7.3.1/../../../../arm-none-eabi/lib/thumb/v6-m/libg.a(lib_a-memcpy-stub.o)
 .debug_frame   0x0000000000000000       0x30 /usr/bin/../lib/gcc/arm-none-eabi/7.3.1/../../../../arm-none-eabi/lib/thumb/v6-m/libg.a(lib_a-memcpy-stub.o)
 .ARM.attributes
                0x0000000000000000       0x2c /usr/bin/../lib/gcc/arm-none-eabi/7.3.1/../../../../arm-none-eabi/lib/thumb/v6-m/libg.a(lib_a-memcpy-stub.o)
 .text          0x0000000000000000        0x0 /usr/bin/../lib/gcc/arm-none-eabi/7.3.1/../../../../arm-none-eabi/lib/thumb/v6-m/libg.a(lib_a-memset.o)
 .data          0x0000000000000000        0x0 /usr/bin/../lib/gcc/arm-none-eabi/7.3.1/../../../../arm-none-eabi/lib/thumb/v6-m/libg.a(lib_a-memset.o)
 .bss           0x0000000000000000        0x0 /usr/bin/../lib/gcc/arm-none-eabi/7.3.1/../../../../arm-none-eabi/lib/thumb/v6-m/libg.a(lib_a-memset.o)
 .text          0x0000000000000000        0x0 /usr/bin/../lib/gcc/arm-none-eabi/7.3.1/../../../../arm-none-eabi/lib/thumb/v6-m/libg.a(lib_a-rand.o)
 .data          0x0000000000000000        0x0 /usr/bin/../lib/gcc/arm-none-eabi/7.3.1/../../../../arm-none-eabi/lib/thumb/v6-m/libg.a(lib_a-rand.o)
 .bss           0x0000000000000000        0x0 /usr/bin/../lib/gcc/arm-none-eabi/7.3.1/../../../../arm-none-eabi/lib/thumb/v6-m/libg.a(lib_a-rand.o)
 .text.srand    0x0000000000000000       0x14 /usr/bin/../lib/gcc/arm-none-eabi/7.3.1/../../../../arm-none-eabi/lib/thumb/v6-m/libg.a(lib_a-rand.o)
 .text          0x0000000000000000        0x0 /usr/bin/../lib/gcc/arm-none-eabi/7.3.1/../../../../arm-none-eabi/lib/thumb/v6-m/libg.a(lib_a-__call_atexit.o)
 .data          0x0000000000000000        0x0 /usr/bin/../lib/gcc/arm-none-eabi/7.3.1/../../../../arm-none-eabi/lib/thumb/v6-m/libg.a(lib_a-__call_atexit.o)
 .bss           0x0000000000000000        0x0 /usr/bin/../lib/gcc/arm-none-eabi/7.3.1/../../../../arm-none-eabi/lib/thumb/v6-m/libg.a(lib_a-__call_atexit.o)
 .text.__call_exitprocs
                0x0000000000000000      0x118 /usr/bin/../lib/gcc/arm-none-eabi/7.3.1/../../../../arm-none-eabi/lib/thumb/v6-m/libg.a(lib_a-__call_atexit.o)
 .text          0x0000000000000000        0x0 /usr/bin/../lib/gcc/arm-none-eabi/7.3.1/../../../../arm-none-eabi/lib/thumb/v6-m/libg.a(lib_a-atexit.o)
 .data          0x0000000000000000        0x0 /usr/bin/../lib/gcc/arm-none-eabi/7.3.1/../../../../arm-none-eabi/lib/thumb/v6-m/libg.a(lib_a-atexit.o)
 .bss           0x0000000000000000        0x0 /usr/bin/../lib/gcc/arm-none-eabi/7.3.1/../../../../arm-none-eabi/lib/thumb/v6-m/libg.a(lib_a-atexit.o)
 .text          0x0000000000000000        0x0 /usr/bin/../lib/gcc/arm-none-eabi/7.3.1/../../../../arm-none-eabi/lib/thumb/v6-m/libg.a(lib_a-fini.o)
 .data          0x0000000000000000        0x0 /usr/bin/../lib/gcc/arm-none-eabi/7.3.1/../../../../arm-none-eabi/lib/thumb/v6-m/libg.a(lib_a-fini.o)
 .bss           0x0000000000000000        0x0 /usr/bin/../lib/gcc/arm-none-eabi/7.3.1/../../../../arm-none-eabi/lib/thumb/v6-m/libg.a(lib_a-fini.o)
 .text          0x0000000000000000        0x0 /usr/bin/../lib/gcc/arm-none-eabi/7.3.1/../../../../arm-none-eabi/lib/thumb/v6-m/libg.a(lib_a-lock.o)
 .data          0x0000000000000000        0x0 /usr/bin/../lib/gcc/arm-none-eabi/7.3.1/../../../../arm-none-eabi/lib/thumb/v6-m/libg.a(lib_a-lock.o)
 .bss           0x0000000000000000        0x0 /usr/bin/../lib/gcc/arm-none-eabi/7.3.1/../../../../arm-none-eabi/lib/thumb/v6-m/libg.a(lib_a-lock.o)
 .text.__retarget_lock_init
                0x0000000000000000        0x4 /usr/bin/../lib/gcc/arm-none-eabi/7.3.1/../../../../arm-none-eabi/lib/thumb/v6-m/libg.a(lib_a-lock.o)
 .text.__retarget_lock_init_recursive
                0x0000000000000000        0x4 /usr/bin/../lib/gcc/arm-none-eabi/7.3.1/../../../../arm-none-eabi/lib/thumb/v6-m/libg.a(lib_a-lock.o)
 .text.__retarget_lock_close
                0x0000000000000000        0x4 /usr/bin/../lib/gcc/arm-none-eabi/7.3.1/../../../../arm-none-eabi/lib/thumb/v6-m/libg.a(lib_a-lock.o)
 .text.__retarget_lock_close_recursive
                0x0000000000000000        0x4 /usr/bin/../lib/gcc/arm-none-eabi/7.3.1/../../../../arm-none-eabi/lib/thumb/v6-m/libg.a(lib_a-lock.o)
 .text.__retarget_lock_acquire
                0x0000000000000000        0x4 /usr/bin/../lib/gcc/arm-none-eabi/7.3.1/../../../../arm-none-eabi/lib/thumb/v6-m/libg.a(lib_a-lock.o)
 .text.__retarget_lock_try_acquire
                0x0000000000000000        0x4 /usr/bin/../lib/gcc/arm-none-eabi/7.3.1/../../../../arm-none-eabi/lib/thumb/v6-m/libg.a(lib_a-lock.o)
 .text.__retarget_lock_try_acquire_recursive
                0x0000000000000000        0x4 /usr/bin/../lib/gcc/arm-none-eabi/7.3.1/../../../../arm-none-eabi/lib/thumb/v6-m/libg.a(lib_a-lock.o)
 .text.__retarget_lock_release
                0x0000000000000000        0x4 /usr/bin/../lib/gcc/arm-none-eabi/7.3.1/../../../../arm-none-eabi/lib/thumb/v6-m/libg.a(lib_a-lock.o)
 .text          0x0000000000000000        0x0 /usr/bin/../lib/gcc/arm-none-eabi/7.3.1/../../../../arm-none-eabi/lib/thumb/v6-m/libg.a(lib_a-__atexit.o)
 .data          0x0000000000000000        0x0 /usr/bin/../lib/gcc/arm-none-eabi/7.3.1/../../../../arm-none-eabi/lib/thumb/v6-m/libg.a(lib_a-__atexit.o)
 .bss           0x0000000000000000        0x0 /usr/bin/../lib/gcc/arm-none-eabi/7.3.1/../../../../arm-none-eabi/lib/thumb/v6-m/libg.a(lib_a-__atexit.o)
 .data          0x0000000000000000        0x0 /usr/bin/../lib/gcc/arm-none-eabi/7.3.1/thumb/v6-m/libgcc.a(_muldi3.o)
 .bss           0x0000000000000000        0x0 /usr/bin/../lib/gcc/arm-none-eabi/7.3.1/thumb/v6-m/libgcc.a(_muldi3.o)
 .text          0x0000000000000000        0x0 /usr/bin/../lib/gcc/arm-none-eabi/7.3.1/thumb/v6-m/crtend.o
 .data          0x0000000000000000        0x0 /usr/bin/../lib/gcc/arm-none-eabi/7.3.1/thumb/v6-m/crtend.o
 .bss           0x0000000000000000        0x0 /usr/bin/../lib/gcc/arm-none-eabi/7.3.1/thumb/v6-m/crtend.o
 .eh_frame      0x0000000000000000        0x4 /usr/bin/../lib/gcc/arm-none-eabi/7.3.1/thumb/v6-m/crtend.o
 .ARM.attributes
                0x0000000000000000       0x2c /usr/bin/../lib/gcc/arm-none-eabi/7.3.1/thumb/v6-m/crtend.o
 .text          0x0000000000000000        0x0 /usr/bin/../lib/gcc/arm-none-eabi/7.3.1/thumb/v6-m/crtn.o
 .data          0x0000000000000000        0x0 /usr/bin/../lib/gcc/arm-none-eabi/7.3.1/thumb/v6-m/crtn.o
 .bss           0x0000000000000000        0x0 /usr/bin/../lib/gcc/arm-none-eabi/7.3.1/thumb/v6-m/crtn.o

Memory Configuration

Name             Origin             Length             Attributes
RAM              0x0000000020000000 0x0000000000002000 xrw
FLASH            0x0000000008000000 0x0000000000010000 xr
*default*        0x0000000000000000 0xffffffffffffffff

Linker script and memory map

LOAD /usr/bin/../lib/gcc/arm-none-eabi/7.3.1/thumb/v6-m/crti.o
LOAD /usr/bin/../lib/gcc/arm-none-eabi/7.3.1/thumb/v6-m/crtbegin.o
LOAD /usr/bin/../lib/gcc/arm-none-eabi/7.3.1/../../../../arm-none-eabi/lib/thumb/v6-m/crt0.o
LOAD CMakeFiles/SnakeGame.elf.dir/Core/Src/main.c.obj
LOAD CMakeFiles/SnakeGame.elf.dir/Core/Src/stm32f0xx_it.c.obj
LOAD CMakeFiles/SnakeGame.elf.dir/Core/Src/syscalls.c.obj
LOAD CMakeFiles/SnakeGame.elf.dir/Core/Src/system_stm32f0xx.c.obj
LOAD CMakeFiles/SnakeGame.elf.dir/Drivers/Lib/Point.c.obj
LOAD CMakeFiles/SnakeGame.elf.dir/Drivers/Lib/Snake.c.obj
LOAD CMakeFiles/SnakeGame.elf.dir/Drivers/Lib/font5x7.c.obj
LOAD CMakeFiles/SnakeGame.elf.dir/Drivers/Lib/oled_driver.c.obj
LOAD CMakeFiles/SnakeGame.elf.dir/Drivers/Lib/xprintf.c.obj
LOAD CMakeFiles/SnakeGame.elf.dir/Drivers/STM32F0xx_HAL_Driver/Src/stm32f0xx_ll_dma.c.obj
LOAD CMakeFiles/SnakeGame.elf.dir/Drivers/STM32F0xx_HAL_Driver/Src/stm32f0xx_ll_exti.c.obj
LOAD CMakeFiles/SnakeGame.elf.dir/Drivers/STM32F0xx_HAL_Driver/Src/stm32f0xx_ll_gpio.c.obj
LOAD CMakeFiles/SnakeGame.elf.dir/Drivers/STM32F0xx_HAL_Driver/Src/stm32f0xx_ll_i2c.c.obj
LOAD CMakeFiles/SnakeGame.elf.dir/Drivers/STM32F0xx_HAL_Driver/Src/stm32f0xx_ll_pwr.c.obj
LOAD CMakeFiles/SnakeGame.elf.dir/Drivers/STM32F0xx_HAL_Driver/Src/stm32f0xx_ll_rcc.c.obj
LOAD CMakeFiles/SnakeGame.elf.dir/Drivers/STM32F0xx_HAL_Driver/Src/stm32f0xx_ll_utils.c.obj
LOAD CMakeFiles/SnakeGame.elf.dir/startup/startup_stm32f051x8.s.obj
START GROUP
LOAD /usr/bin/../lib/gcc/arm-none-eabi/7.3.1/thumb/v6-m/libgcc.a
LOAD /usr/bin/../lib/gcc/arm-none-eabi/7.3.1/../../../../arm-none-eabi/lib/thumb/v6-m/libg.a
LOAD /usr/bin/../lib/gcc/arm-none-eabi/7.3.1/../../../../arm-none-eabi/lib/thumb/v6-m/libc.a
END GROUP
LOAD /usr/bin/../lib/gcc/arm-none-eabi/7.3.1/thumb/v6-m/crtend.o
LOAD /usr/bin/../lib/gcc/arm-none-eabi/7.3.1/thumb/v6-m/crtn.o
                0x0000000020002000                _estack = 0x20002000
                0x0000000000000200                _Min_Heap_Size = 0x200
                0x0000000000000400                _Min_Stack_Size = 0x400

.isr_vector     0x0000000008000000       0xc0
                0x0000000008000000                . = ALIGN (0x4)
 *(.isr_vector)
 .isr_vector    0x0000000008000000       0xc0 CMakeFiles/SnakeGame.elf.dir/startup/startup_stm32f051x8.s.obj
                0x0000000008000000                g_pfnVectors
                0x00000000080000c0                . = ALIGN (0x4)

.text           0x00000000080000c0     0x1394
                0x00000000080000c0                . = ALIGN (0x4)
 *(.text)
 .text          0x00000000080000c0       0x48 /usr/bin/../lib/gcc/arm-none-eabi/7.3.1/thumb/v6-m/crtbegin.o
 .text          0x0000000008000108      0x114 /usr/bin/../lib/gcc/arm-none-eabi/7.3.1/thumb/v6-m/libgcc.a(_udivsi3.o)
                0x0000000008000108                __udivsi3
                0x0000000008000108                __aeabi_uidiv
                0x0000000008000214                __aeabi_uidivmod
 .text          0x000000000800021c      0x1d4 /usr/bin/../lib/gcc/arm-none-eabi/7.3.1/thumb/v6-m/libgcc.a(_divsi3.o)
                0x000000000800021c                __aeabi_idiv
                0x000000000800021c                __divsi3
                0x00000000080003e8                __aeabi_idivmod
 .text          0x00000000080003f0        0x4 /usr/bin/../lib/gcc/arm-none-eabi/7.3.1/thumb/v6-m/libgcc.a(_dvmd_tls.o)
                0x00000000080003f0                __aeabi_ldiv0
                0x00000000080003f0                __aeabi_idiv0
 .text          0x00000000080003f4       0x54 /usr/bin/../lib/gcc/arm-none-eabi/7.3.1/thumb/v6-m/libgcc.a(_muldi3.o)
                0x00000000080003f4                __aeabi_lmul
                0x00000000080003f4                __muldi3
 *(.text*)
 .text.delay_10ms
                0x0000000008000448       0x10 CMakeFiles/SnakeGame.elf.dir/Core/Src/main.c.obj
 .text.MX_GPIO_Init
                0x0000000008000458      0x118 CMakeFiles/SnakeGame.elf.dir/Core/Src/main.c.obj
 .text.MX_I2C1_Init
                0x0000000008000570       0xdc CMakeFiles/SnakeGame.elf.dir/Core/Src/main.c.obj
 .text.is_pressed
                0x000000000800064c       0x22 CMakeFiles/SnakeGame.elf.dir/Core/Src/main.c.obj
                0x000000000800064c                is_pressed
 *fill*         0x000000000800066e        0x2 
 .text.SystemClock_Config
                0x0000000008000670       0xb8 CMakeFiles/SnakeGame.elf.dir/Core/Src/main.c.obj
                0x0000000008000670                SystemClock_Config
 .text.main     0x0000000008000728      0x13c CMakeFiles/SnakeGame.elf.dir/Core/Src/main.c.obj
                0x0000000008000728                main
 .text.NMI_Handler
                0x0000000008000864        0x2 CMakeFiles/SnakeGame.elf.dir/Core/Src/stm32f0xx_it.c.obj
                0x0000000008000864                NMI_Handler
 .text.HardFault_Handler
                0x0000000008000866        0x2 CMakeFiles/SnakeGame.elf.dir/Core/Src/stm32f0xx_it.c.obj
                0x0000000008000866                HardFault_Handler
 .text.SVC_Handler
                0x0000000008000868        0x2 CMakeFiles/SnakeGame.elf.dir/Core/Src/stm32f0xx_it.c.obj
                0x0000000008000868                SVC_Handler
 .text.PendSV_Handler
                0x000000000800086a        0x2 CMakeFiles/SnakeGame.elf.dir/Core/Src/stm32f0xx_it.c.obj
                0x000000000800086a                PendSV_Handler
 .text.SysTick_Handler
                0x000000000800086c        0x2 CMakeFiles/SnakeGame.elf.dir/Core/Src/stm32f0xx_it.c.obj
                0x000000000800086c                SysTick_Handler
 .text.SystemInit
                0x000000000800086e        0x2 CMakeFiles/SnakeGame.elf.dir/Core/Src/system_stm32f0xx.c.obj
                0x000000000800086e                SystemInit
 .text.newPoint
                0x0000000008000870       0x34 CMakeFiles/SnakeGame.elf.dir/Drivers/Lib/Point.c.obj
                0x0000000008000870                newPoint
 .text.change_direction
                0x00000000080008a4       0x46 CMakeFiles/SnakeGame.elf.dir/Drivers/Lib/Snake.c.obj
                0x00000000080008a4                change_direction
 .text.draw_snake
                0x00000000080008ea       0x22 CMakeFiles/SnakeGame.elf.dir/Drivers/Lib/Snake.c.obj
                0x00000000080008ea                draw_snake
 .text.push     0x000000000800090c       0x30 CMakeFiles/SnakeGame.elf.dir/Drivers/Lib/Snake.c.obj
                0x000000000800090c                push
 .text.draw_food
                0x000000000800093c       0x20 CMakeFiles/SnakeGame.elf.dir/Drivers/Lib/Snake.c.obj
                0x000000000800093c                draw_food
 .text.new_food
                0x000000000800095c       0x2e CMakeFiles/SnakeGame.elf.dir/Drivers/Lib/Snake.c.obj
                0x000000000800095c                new_food
 *fill*         0x000000000800098a        0x2 
 .text.move_forward
                0x000000000800098c       0xd8 CMakeFiles/SnakeGame.elf.dir/Drivers/Lib/Snake.c.obj
                0x000000000800098c                move_forward
 .text.generate_food
                0x0000000008000a64       0x38 CMakeFiles/SnakeGame.elf.dir/Drivers/Lib/Snake.c.obj
                0x0000000008000a64                generate_food
 .text.get_pix  0x0000000008000a9c       0x18 CMakeFiles/SnakeGame.elf.dir/Drivers/Lib/font5x7.c.obj
                0x0000000008000a9c                get_pix
 .text.oled_cmd_send
                0x0000000008000ab4       0x40 CMakeFiles/SnakeGame.elf.dir/Drivers/Lib/oled_driver.c.obj
 .text.oled_data_send
                0x0000000008000af4       0x58 CMakeFiles/SnakeGame.elf.dir/Drivers/Lib/oled_driver.c.obj
 .text.oled_clr
                0x0000000008000b4c       0x14 CMakeFiles/SnakeGame.elf.dir/Drivers/Lib/oled_driver.c.obj
                0x0000000008000b4c                oled_clr
 .text.oled_update
                0x0000000008000b60       0x38 CMakeFiles/SnakeGame.elf.dir/Drivers/Lib/oled_driver.c.obj
                0x0000000008000b60                oled_update
 .text.oled_config
                0x0000000008000b98       0x9c CMakeFiles/SnakeGame.elf.dir/Drivers/Lib/oled_driver.c.obj
                0x0000000008000b98                oled_config
 .text.oled_set_pix
                0x0000000008000c34       0x44 CMakeFiles/SnakeGame.elf.dir/Drivers/Lib/oled_driver.c.obj
                0x0000000008000c34                oled_set_pix
 .text.oled_putc
                0x0000000008000c78       0x84 CMakeFiles/SnakeGame.elf.dir/Drivers/Lib/oled_driver.c.obj
                0x0000000008000c78                oled_putc
 .text.xputc    0x0000000008000cfc       0x38 CMakeFiles/SnakeGame.elf.dir/Drivers/Lib/xprintf.c.obj
                0x0000000008000cfc                xputc
 .text.xputs    0x0000000008000d34       0x14 CMakeFiles/SnakeGame.elf.dir/Drivers/Lib/xprintf.c.obj
                0x0000000008000d34                xputs
 .text.xvprintf
                0x0000000008000d48      0x200 CMakeFiles/SnakeGame.elf.dir/Drivers/Lib/xprintf.c.obj
 .text.xprintf  0x0000000008000f48       0x18 CMakeFiles/SnakeGame.elf.dir/Drivers/Lib/xprintf.c.obj
                0x0000000008000f48                xprintf
 .text.LL_EXTI_Init
                0x0000000008000f60       0xcc CMakeFiles/SnakeGame.elf.dir/Drivers/STM32F0xx_HAL_Driver/Src/stm32f0xx_ll_exti.c.obj
                0x0000000008000f60                LL_EXTI_Init
 .text.LL_GPIO_Init
                0x000000000800102c       0xa8 CMakeFiles/SnakeGame.elf.dir/Drivers/STM32F0xx_HAL_Driver/Src/stm32f0xx_ll_gpio.c.obj
                0x000000000800102c                LL_GPIO_Init
 .text.LL_I2C_Init
                0x00000000080010d4       0x78 CMakeFiles/SnakeGame.elf.dir/Drivers/STM32F0xx_HAL_Driver/Src/stm32f0xx_ll_i2c.c.obj
                0x00000000080010d4                LL_I2C_Init
 .text.LL_Init1msTick
                0x000000000800114c       0x20 CMakeFiles/SnakeGame.elf.dir/Drivers/STM32F0xx_HAL_Driver/Src/stm32f0xx_ll_utils.c.obj
                0x000000000800114c                LL_Init1msTick
 .text.LL_SetSystemCoreClock
                0x000000000800116c        0xc CMakeFiles/SnakeGame.elf.dir/Drivers/STM32F0xx_HAL_Driver/Src/stm32f0xx_ll_utils.c.obj
                0x000000000800116c                LL_SetSystemCoreClock
 .text.Reset_Handler
                0x0000000008001178       0x50 CMakeFiles/SnakeGame.elf.dir/startup/startup_stm32f051x8.s.obj
                0x0000000008001178                Reset_Handler
 .text.Default_Handler
                0x00000000080011c8        0x2 CMakeFiles/SnakeGame.elf.dir/startup/startup_stm32f051x8.s.obj
                0x00000000080011c8                TIM1_CC_IRQHandler
                0x00000000080011c8                TSC_IRQHandler
                0x00000000080011c8                ADC1_COMP_IRQHandler
                0x00000000080011c8                PVD_IRQHandler
                0x00000000080011c8                I2C1_IRQHandler
                0x00000000080011c8                RCC_CRS_IRQHandler
                0x00000000080011c8                SPI1_IRQHandler
                0x00000000080011c8                TIM6_DAC_IRQHandler
                0x00000000080011c8                EXTI2_3_IRQHandler
                0x00000000080011c8                I2C2_IRQHandler
                0x00000000080011c8                TIM17_IRQHandler
                0x00000000080011c8                CEC_CAN_IRQHandler
                0x00000000080011c8                RTC_IRQHandler
                0x00000000080011c8                TIM16_IRQHandler
                0x00000000080011c8                TIM3_IRQHandler
                0x00000000080011c8                EXTI4_15_IRQHandler
                0x00000000080011c8                DMA1_Channel1_IRQHandler
                0x00000000080011c8                Default_Handler
                0x00000000080011c8                TIM14_IRQHandler
                0x00000000080011c8                DMA1_Channel4_5_IRQHandler
                0x00000000080011c8                TIM15_IRQHandler
                0x00000000080011c8                EXTI0_1_IRQHandler
                0x00000000080011c8                SPI2_IRQHandler
                0x00000000080011c8                WWDG_IRQHandler
                0x00000000080011c8                TIM2_IRQHandler
                0x00000000080011c8                DMA1_Channel2_3_IRQHandler
                0x00000000080011c8                USART2_IRQHandler
                0x00000000080011c8                FLASH_IRQHandler
                0x00000000080011c8                USART1_IRQHandler
                0x00000000080011c8                TIM1_BRK_UP_TRG_COM_IRQHandler
 *fill*         0x00000000080011ca        0x2 
 .text.__libc_init_array
                0x00000000080011cc       0x48 /usr/bin/../lib/gcc/arm-none-eabi/7.3.1/../../../../arm-none-eabi/lib/thumb/v6-m/libg.a(lib_a-init.o)
                0x00000000080011cc                __libc_init_array
 .text.memset   0x0000000008001214       0x9c /usr/bin/../lib/gcc/arm-none-eabi/7.3.1/../../../../arm-none-eabi/lib/thumb/v6-m/libg.a(lib_a-memset.o)
                0x0000000008001214                memset
 .text.rand     0x00000000080012b0       0x34 /usr/bin/../lib/gcc/arm-none-eabi/7.3.1/../../../../arm-none-eabi/lib/thumb/v6-m/libg.a(lib_a-rand.o)
                0x00000000080012b0                rand
 .text.startup.register_fini
                0x00000000080012e4       0x18 /usr/bin/../lib/gcc/arm-none-eabi/7.3.1/../../../../arm-none-eabi/lib/thumb/v6-m/libg.a(lib_a-__call_atexit.o)
 .text.atexit   0x00000000080012fc       0x10 /usr/bin/../lib/gcc/arm-none-eabi/7.3.1/../../../../arm-none-eabi/lib/thumb/v6-m/libg.a(lib_a-atexit.o)
                0x00000000080012fc                atexit
 .text.__libc_fini_array
                0x000000000800130c       0x34 /usr/bin/../lib/gcc/arm-none-eabi/7.3.1/../../../../arm-none-eabi/lib/thumb/v6-m/libg.a(lib_a-fini.o)
                0x000000000800130c                __libc_fini_array
 .text.__retarget_lock_acquire_recursive
                0x0000000008001340        0x4 /usr/bin/../lib/gcc/arm-none-eabi/7.3.1/../../../../arm-none-eabi/lib/thumb/v6-m/libg.a(lib_a-lock.o)
                0x0000000008001340                __retarget_lock_acquire_recursive
 .text.__retarget_lock_release_recursive
                0x0000000008001344        0x4 /usr/bin/../lib/gcc/arm-none-eabi/7.3.1/../../../../arm-none-eabi/lib/thumb/v6-m/libg.a(lib_a-lock.o)
                0x0000000008001344                __retarget_lock_release_recursive
 .text.__register_exitproc
                0x0000000008001348       0xf4 /usr/bin/../lib/gcc/arm-none-eabi/7.3.1/../../../../arm-none-eabi/lib/thumb/v6-m/libg.a(lib_a-__atexit.o)
                0x0000000008001348                __register_exitproc
 *(.glue_7)
 .glue_7        0x000000000800143c        0x0 linker stubs
 *(.glue_7t)
 .glue_7t       0x000000000800143c        0x0 linker stubs
 *(.eh_frame)
 .eh_frame      0x000000000800143c        0x0 /usr/bin/../lib/gcc/arm-none-eabi/7.3.1/thumb/v6-m/crtbegin.o
 *(.init)
 .init          0x000000000800143c        0x4 /usr/bin/../lib/gcc/arm-none-eabi/7.3.1/thumb/v6-m/crti.o
                0x000000000800143c                _init
 .init          0x0000000008001440        0x8 /usr/bin/../lib/gcc/arm-none-eabi/7.3.1/thumb/v6-m/crtn.o
 *(.fini)
 .fini          0x0000000008001448        0x4 /usr/bin/../lib/gcc/arm-none-eabi/7.3.1/thumb/v6-m/crti.o
                0x0000000008001448                _fini
 .fini          0x000000000800144c        0x8 /usr/bin/../lib/gcc/arm-none-eabi/7.3.1/thumb/v6-m/crtn.o
                0x0000000008001454                . = ALIGN (0x4)
                0x0000000008001454                _etext = .

.vfp11_veneer   0x0000000008001454        0x0
 .vfp11_veneer  0x0000000008001454        0x0 linker stubs

.v4_bx          0x0000000008001454        0x0
 .v4_bx         0x0000000008001454        0x0 linker stubs

.iplt           0x0000000008001454        0x0
 .iplt          0x0000000008001454        0x0 /usr/bin/../lib/gcc/arm-none-eabi/7.3.1/thumb/v6-m/crtbegin.o

.rodata         0x0000000008001454      0x574
                0x0000000008001454                . = ALIGN (0x4)
 *(.rodata)
 *(.rodata*)
 .rodata.main.str1.4
                0x0000000008001454        0xb CMakeFiles/SnakeGame.elf.dir/Core/Src/main.c.obj
 *fill*         0x000000000800145f        0x1 
 .rodata.move_forward.str1.4
                0x0000000008001460        0xc CMakeFiles/SnakeGame.elf.dir/Drivers/Lib/Snake.c.obj
                                          0xa (size before relaxing)
 .rodata.font_data
                0x000000000800146c      0x4fb CMakeFiles/SnakeGame.elf.dir/Drivers/Lib/font5x7.c.obj
                0x000000000800146c                font_data
 *fill*         0x0000000008001967        0x1 
 .rodata.xvprintf
                0x0000000008001968       0x5c CMakeFiles/SnakeGame.elf.dir/Drivers/Lib/xprintf.c.obj
 .rodata._global_impure_ptr
                0x00000000080019c4        0x4 /usr/bin/../lib/gcc/arm-none-eabi/7.3.1/../../../../arm-none-eabi/lib/thumb/v6-m/libg.a(lib_a-impure.o)
                0x00000000080019c4                _global_impure_ptr
                0x00000000080019c8                . = ALIGN (0x4)

.rel.dyn        0x00000000080019c8        0x0
 .rel.iplt      0x00000000080019c8        0x0 /usr/bin/../lib/gcc/arm-none-eabi/7.3.1/thumb/v6-m/crtbegin.o

.ARM.extab
 *(.ARM.extab* .gnu.linkonce.armextab.*)

.ARM            0x00000000080019c8        0x0
                0x00000000080019c8                __exidx_start = .
 *(.ARM.exidx*)
                0x00000000080019c8                __exidx_end = .

.preinit_array  0x00000000080019c8        0x0
                0x00000000080019c8                PROVIDE (__preinit_array_start = .)
 *(.preinit_array*)
                0x00000000080019c8                PROVIDE (__preinit_array_end = .)

.init_array     0x00000000080019c8        0x8
                0x00000000080019c8                PROVIDE (__init_array_start = .)
 *(SORT_BY_NAME(.init_array.*))
 .init_array.00000
                0x00000000080019c8        0x4 /usr/bin/../lib/gcc/arm-none-eabi/7.3.1/../../../../arm-none-eabi/lib/thumb/v6-m/libg.a(lib_a-__call_atexit.o)
 *(.init_array*)
 .init_array    0x00000000080019cc        0x4 /usr/bin/../lib/gcc/arm-none-eabi/7.3.1/thumb/v6-m/crtbegin.o
                0x00000000080019d0                PROVIDE (__init_array_end = .)

.fini_array     0x00000000080019d0        0x4
                0x00000000080019d0                PROVIDE (__fini_array_start = .)
 *(SORT_BY_NAME(.fini_array.*))
 *(.fini_array*)
 .fini_array    0x00000000080019d0        0x4 /usr/bin/../lib/gcc/arm-none-eabi/7.3.1/thumb/v6-m/crtbegin.o
                0x00000000080019d4                PROVIDE (__fini_array_end = .)
                0x00000000080019d4                _sidata = LOADADDR (.data)

.data           0x0000000020000000      0x444 load address 0x00000000080019d4
                0x0000000020000000                . = ALIGN (0x4)
                0x0000000020000000                _sdata = .
 *(.data)
 *(.data*)
 .data.is_snake_alive
                0x0000000020000000        0x4 CMakeFiles/SnakeGame.elf.dir/Core/Src/main.c.obj
                0x0000000020000000                is_snake_alive
 .data.SystemCoreClock
                0x0000000020000004        0x4 CMakeFiles/SnakeGame.elf.dir/Core/Src/system_stm32f0xx.c.obj
                0x0000000020000004                SystemCoreClock
 .data.font_desc
                0x0000000020000008        0xc CMakeFiles/SnakeGame.elf.dir/Drivers/Lib/font5x7.c.obj
                0x0000000020000008                font_desc
 .data._impure_ptr
                0x0000000020000014        0x4 /usr/bin/../lib/gcc/arm-none-eabi/7.3.1/../../../../arm-none-eabi/lib/thumb/v6-m/libg.a(lib_a-impure.o)
                0x0000000020000014                _impure_ptr
 .data.impure_data
                0x0000000020000018      0x428 /usr/bin/../lib/gcc/arm-none-eabi/7.3.1/../../../../arm-none-eabi/lib/thumb/v6-m/libg.a(lib_a-impure.o)
 .data.__atexit_recursive_mutex
                0x0000000020000440        0x4 /usr/bin/../lib/gcc/arm-none-eabi/7.3.1/../../../../arm-none-eabi/lib/thumb/v6-m/libg.a(lib_a-__call_atexit.o)
                0x0000000020000440                __atexit_recursive_mutex
                0x0000000020000444                . = ALIGN (0x4)
                0x0000000020000444                _edata = .

.igot.plt       0x0000000020000444        0x0 load address 0x0000000008001e18
 .igot.plt      0x0000000020000444        0x0 /usr/bin/../lib/gcc/arm-none-eabi/7.3.1/thumb/v6-m/crtbegin.o
                0x0000000020000444                . = ALIGN (0x4)

.bss            0x0000000020000444      0x44c load address 0x0000000008001e18
                0x0000000020000444                _sbss = .
                0x0000000020000444                __bss_start__ = _sbss
 *(.bss)
 .bss           0x0000000020000444       0x1c /usr/bin/../lib/gcc/arm-none-eabi/7.3.1/thumb/v6-m/crtbegin.o
 *(.bss*)
 .bss.curX      0x0000000020000460        0x1 CMakeFiles/SnakeGame.elf.dir/Drivers/Lib/oled_driver.c.obj
 .bss.curY      0x0000000020000461        0x1 CMakeFiles/SnakeGame.elf.dir/Drivers/Lib/oled_driver.c.obj
 *fill*         0x0000000020000462        0x2 
 .bss.gmem      0x0000000020000464      0x400 CMakeFiles/SnakeGame.elf.dir/Drivers/Lib/oled_driver.c.obj
 .bss.outptr    0x0000000020000864        0x4 CMakeFiles/SnakeGame.elf.dir/Drivers/Lib/xprintf.c.obj
 .bss.xfunc_out
                0x0000000020000868        0x4 CMakeFiles/SnakeGame.elf.dir/Drivers/Lib/xprintf.c.obj
                0x0000000020000868                xfunc_out
 *(COMMON)
 COMMON         0x000000002000086c       0x21 /usr/bin/../lib/gcc/arm-none-eabi/7.3.1/../../../../arm-none-eabi/lib/thumb/v6-m/libg.a(lib_a-lock.o)
                0x000000002000086c                __lock___atexit_recursive_mutex
                0x0000000020000870                __lock___arc4random_mutex
                0x0000000020000874                __lock___env_recursive_mutex
                0x0000000020000878                __lock___sinit_recursive_mutex
                0x000000002000087c                __lock___malloc_recursive_mutex
                0x0000000020000880                __lock___at_quick_exit_mutex
                0x0000000020000884                __lock___dd_hash_mutex
                0x0000000020000888                __lock___tz_mutex
                0x000000002000088c                __lock___sfp_recursive_mutex
                0x0000000020000890                . = ALIGN (0x4)
 *fill*         0x000000002000088d        0x3 
                0x0000000020000890                _ebss = .
                0x0000000020000890                __bss_end__ = _ebss

._user_heap_stack
                0x0000000020000890      0x600 load address 0x0000000008001e18
                0x0000000020000890                . = ALIGN (0x8)
                0x0000000020000890                PROVIDE (end = .)
                [!provide]                        PROVIDE (_end = .)
                0x0000000020000a90                . = (. + _Min_Heap_Size)
 *fill*         0x0000000020000890      0x200 
                0x0000000020000e90                . = (. + _Min_Stack_Size)
 *fill*         0x0000000020000a90      0x400 
                0x0000000020000e90                . = ALIGN (0x8)

/DISCARD/
 libc.a(*)
 libm.a(*)
 libgcc.a(*)

.ARM.attributes
                0x0000000000000000       0x28
 *(.ARM.attributes)
 .ARM.attributes
                0x0000000000000000       0x1e /usr/bin/../lib/gcc/arm-none-eabi/7.3.1/thumb/v6-m/crti.o
 .ARM.attributes
                0x000000000000001e       0x2c /usr/bin/../lib/gcc/arm-none-eabi/7.3.1/thumb/v6-m/crtbegin.o
 .ARM.attributes
                0x000000000000004a       0x31 CMakeFiles/SnakeGame.elf.dir/Core/Src/main.c.obj
 .ARM.attributes
                0x000000000000007b       0x31 CMakeFiles/SnakeGame.elf.dir/Core/Src/stm32f0xx_it.c.obj
 .ARM.attributes
                0x00000000000000ac       0x31 CMakeFiles/SnakeGame.elf.dir/Core/Src/system_stm32f0xx.c.obj
 .ARM.attributes
                0x00000000000000dd       0x31 CMakeFiles/SnakeGame.elf.dir/Drivers/Lib/Point.c.obj
 .ARM.attributes
                0x000000000000010e       0x31 CMakeFiles/SnakeGame.elf.dir/Drivers/Lib/Snake.c.obj
 .ARM.attributes
                0x000000000000013f       0x31 CMakeFiles/SnakeGame.elf.dir/Drivers/Lib/font5x7.c.obj
 .ARM.attributes
                0x0000000000000170       0x31 CMakeFiles/SnakeGame.elf.dir/Drivers/Lib/oled_driver.c.obj
 .ARM.attributes
                0x00000000000001a1       0x31 CMakeFiles/SnakeGame.elf.dir/Drivers/Lib/xprintf.c.obj
 .ARM.attributes
                0x00000000000001d2       0x31 CMakeFiles/SnakeGame.elf.dir/Drivers/STM32F0xx_HAL_Driver/Src/stm32f0xx_ll_exti.c.obj
 .ARM.attributes
                0x0000000000000203       0x31 CMakeFiles/SnakeGame.elf.dir/Drivers/STM32F0xx_HAL_Driver/Src/stm32f0xx_ll_gpio.c.obj
 .ARM.attributes
                0x0000000000000234       0x31 CMakeFiles/SnakeGame.elf.dir/Drivers/STM32F0xx_HAL_Driver/Src/stm32f0xx_ll_i2c.c.obj
 .ARM.attributes
                0x0000000000000265       0x31 CMakeFiles/SnakeGame.elf.dir/Drivers/STM32F0xx_HAL_Driver/Src/stm32f0xx_ll_utils.c.obj
 .ARM.attributes
                0x0000000000000296       0x21 CMakeFiles/SnakeGame.elf.dir/startup/startup_stm32f051x8.s.obj
 .ARM.attributes
                0x00000000000002b7       0x1e /usr/bin/../lib/gcc/arm-none-eabi/7.3.1/thumb/v6-m/libgcc.a(_udivsi3.o)
 .ARM.attributes
                0x00000000000002d5       0x1e /usr/bin/../lib/gcc/arm-none-eabi/7.3.1/thumb/v6-m/libgcc.a(_divsi3.o)
 .ARM.attributes
                0x00000000000002f3       0x1e /usr/bin/../lib/gcc/arm-none-eabi/7.3.1/thumb/v6-m/libgcc.a(_dvmd_tls.o)
 .ARM.attributes
                0x0000000000000311       0x2c /usr/bin/../lib/gcc/arm-none-eabi/7.3.1/../../../../arm-none-eabi/lib/thumb/v6-m/libg.a(lib_a-impure.o)
 .ARM.attributes
                0x000000000000033d       0x2c /usr/bin/../lib/gcc/arm-none-eabi/7.3.1/../../../../arm-none-eabi/lib/thumb/v6-m/libg.a(lib_a-init.o)
 .ARM.attributes
                0x0000000000000369       0x2c /usr/bin/../lib/gcc/arm-none-eabi/7.3.1/../../../../arm-none-eabi/lib/thumb/v6-m/libg.a(lib_a-memset.o)
 .ARM.attributes
                0x0000000000000395       0x2c /usr/bin/../lib/gcc/arm-none-eabi/7.3.1/../../../../arm-none-eabi/lib/thumb/v6-m/libg.a(lib_a-rand.o)
 .ARM.attributes
                0x00000000000003c1       0x2c /usr/bin/../lib/gcc/arm-none-eabi/7.3.1/../../../../arm-none-eabi/lib/thumb/v6-m/libg.a(lib_a-__call_atexit.o)
 .ARM.attributes
                0x00000000000003ed       0x2c /usr/bin/../lib/gcc/arm-none-eabi/7.3.1/../../../../arm-none-eabi/lib/thumb/v6-m/libg.a(lib_a-atexit.o)
 .ARM.attributes
                0x0000000000000419       0x2c /usr/bin/../lib/gcc/arm-none-eabi/7.3.1/../../../../arm-none-eabi/lib/thumb/v6-m/libg.a(lib_a-fini.o)
 .ARM.attributes
                0x0000000000000445       0x2c /usr/bin/../lib/gcc/arm-none-eabi/7.3.1/../../../../arm-none-eabi/lib/thumb/v6-m/libg.a(lib_a-lock.o)
 .ARM.attributes
                0x0000000000000471       0x2c /usr/bin/../lib/gcc/arm-none-eabi/7.3.1/../../../../arm-none-eabi/lib/thumb/v6-m/libg.a(lib_a-__atexit.o)
 .ARM.attributes
                0x000000000000049d       0x2c /usr/bin/../lib/gcc/arm-none-eabi/7.3.1/thumb/v6-m/libgcc.a(_muldi3.o)
 .ARM.attributes
                0x00000000000004c9       0x1e /usr/bin/../lib/gcc/arm-none-eabi/7.3.1/thumb/v6-m/crtn.o
OUTPUT(SnakeGame.elf elf32-littlearm)

.debug_info     0x0000000000000000     0x7eb9
 .debug_info    0x0000000000000000     0x1b06 CMakeFiles/SnakeGame.elf.dir/Core/Src/main.c.obj
 .debug_info    0x0000000000001b06      0x9c9 CMakeFiles/SnakeGame.elf.dir/Core/Src/stm32f0xx_it.c.obj
 .debug_info    0x00000000000024cf      0x242 CMakeFiles/SnakeGame.elf.dir/Core/Src/system_stm32f0xx.c.obj
 .debug_info    0x0000000000002711      0x99d CMakeFiles/SnakeGame.elf.dir/Drivers/Lib/Point.c.obj
 .debug_info    0x00000000000030ae      0xd37 CMakeFiles/SnakeGame.elf.dir/Drivers/Lib/Snake.c.obj
 .debug_info    0x0000000000003de5      0x992 CMakeFiles/SnakeGame.elf.dir/Drivers/Lib/font5x7.c.obj
 .debug_info    0x0000000000004777     0x14a1 CMakeFiles/SnakeGame.elf.dir/Drivers/Lib/oled_driver.c.obj
 .debug_info    0x0000000000005c18      0x6e3 CMakeFiles/SnakeGame.elf.dir/Drivers/Lib/xprintf.c.obj
 .debug_info    0x00000000000062fb      0x4ab CMakeFiles/SnakeGame.elf.dir/Drivers/STM32F0xx_HAL_Driver/Src/stm32f0xx_ll_exti.c.obj
 .debug_info    0x00000000000067a6      0x72d CMakeFiles/SnakeGame.elf.dir/Drivers/STM32F0xx_HAL_Driver/Src/stm32f0xx_ll_gpio.c.obj
 .debug_info    0x0000000000006ed3      0x6a7 CMakeFiles/SnakeGame.elf.dir/Drivers/STM32F0xx_HAL_Driver/Src/stm32f0xx_ll_i2c.c.obj
 .debug_info    0x000000000000757a      0x91d CMakeFiles/SnakeGame.elf.dir/Drivers/STM32F0xx_HAL_Driver/Src/stm32f0xx_ll_utils.c.obj
 .debug_info    0x0000000000007e97       0x22 CMakeFiles/SnakeGame.elf.dir/startup/startup_stm32f051x8.s.obj

.debug_abbrev   0x0000000000000000     0x1ba1
 .debug_abbrev  0x0000000000000000      0x446 CMakeFiles/SnakeGame.elf.dir/Core/Src/main.c.obj
 .debug_abbrev  0x0000000000000446      0x1bf CMakeFiles/SnakeGame.elf.dir/Core/Src/stm32f0xx_it.c.obj
 .debug_abbrev  0x0000000000000605       0xfd CMakeFiles/SnakeGame.elf.dir/Core/Src/system_stm32f0xx.c.obj
 .debug_abbrev  0x0000000000000702      0x20b CMakeFiles/SnakeGame.elf.dir/Drivers/Lib/Point.c.obj
 .debug_abbrev  0x000000000000090d      0x2bc CMakeFiles/SnakeGame.elf.dir/Drivers/Lib/Snake.c.obj
 .debug_abbrev  0x0000000000000bc9      0x1e1 CMakeFiles/SnakeGame.elf.dir/Drivers/Lib/font5x7.c.obj
 .debug_abbrev  0x0000000000000daa      0x3e0 CMakeFiles/SnakeGame.elf.dir/Drivers/Lib/oled_driver.c.obj
 .debug_abbrev  0x000000000000118a      0x250 CMakeFiles/SnakeGame.elf.dir/Drivers/Lib/xprintf.c.obj
 .debug_abbrev  0x00000000000013da      0x196 CMakeFiles/SnakeGame.elf.dir/Drivers/STM32F0xx_HAL_Driver/Src/stm32f0xx_ll_exti.c.obj
 .debug_abbrev  0x0000000000001570      0x1c4 CMakeFiles/SnakeGame.elf.dir/Drivers/STM32F0xx_HAL_Driver/Src/stm32f0xx_ll_gpio.c.obj
 .debug_abbrev  0x0000000000001734      0x1a1 CMakeFiles/SnakeGame.elf.dir/Drivers/STM32F0xx_HAL_Driver/Src/stm32f0xx_ll_i2c.c.obj
 .debug_abbrev  0x00000000000018d5      0x2ba CMakeFiles/SnakeGame.elf.dir/Drivers/STM32F0xx_HAL_Driver/Src/stm32f0xx_ll_utils.c.obj
 .debug_abbrev  0x0000000000001b8f       0x12 CMakeFiles/SnakeGame.elf.dir/startup/startup_stm32f051x8.s.obj

.debug_loc      0x0000000000000000     0x255d
 .debug_loc     0x0000000000000000      0x3e9 CMakeFiles/SnakeGame.elf.dir/Core/Src/main.c.obj
 .debug_loc     0x00000000000003e9      0x13b CMakeFiles/SnakeGame.elf.dir/Core/Src/system_stm32f0xx.c.obj
 .debug_loc     0x0000000000000524       0xf3 CMakeFiles/SnakeGame.elf.dir/Drivers/Lib/Point.c.obj
 .debug_loc     0x0000000000000617      0x28e CMakeFiles/SnakeGame.elf.dir/Drivers/Lib/Snake.c.obj
 .debug_loc     0x00000000000008a5       0x42 CMakeFiles/SnakeGame.elf.dir/Drivers/Lib/font5x7.c.obj
 .debug_loc     0x00000000000008e7      0x5c2 CMakeFiles/SnakeGame.elf.dir/Drivers/Lib/oled_driver.c.obj
 .debug_loc     0x0000000000000ea9      0x966 CMakeFiles/SnakeGame.elf.dir/Drivers/Lib/xprintf.c.obj
 .debug_loc     0x000000000000180f      0x235 CMakeFiles/SnakeGame.elf.dir/Drivers/STM32F0xx_HAL_Driver/Src/stm32f0xx_ll_exti.c.obj
 .debug_loc     0x0000000000001a44      0x36e CMakeFiles/SnakeGame.elf.dir/Drivers/STM32F0xx_HAL_Driver/Src/stm32f0xx_ll_gpio.c.obj
 .debug_loc     0x0000000000001db2      0x247 CMakeFiles/SnakeGame.elf.dir/Drivers/STM32F0xx_HAL_Driver/Src/stm32f0xx_ll_i2c.c.obj
 .debug_loc     0x0000000000001ff9      0x564 CMakeFiles/SnakeGame.elf.dir/Drivers/STM32F0xx_HAL_Driver/Src/stm32f0xx_ll_utils.c.obj

.debug_aranges  0x0000000000000000      0x358
 .debug_aranges
                0x0000000000000000       0x50 CMakeFiles/SnakeGame.elf.dir/Core/Src/main.c.obj
 .debug_aranges
                0x0000000000000050       0x40 CMakeFiles/SnakeGame.elf.dir/Core/Src/stm32f0xx_it.c.obj
 .debug_aranges
                0x0000000000000090       0x28 CMakeFiles/SnakeGame.elf.dir/Core/Src/system_stm32f0xx.c.obj
 .debug_aranges
                0x00000000000000b8       0x28 CMakeFiles/SnakeGame.elf.dir/Drivers/Lib/Point.c.obj
 .debug_aranges
                0x00000000000000e0       0x58 CMakeFiles/SnakeGame.elf.dir/Drivers/Lib/Snake.c.obj
 .debug_aranges
                0x0000000000000138       0x20 CMakeFiles/SnakeGame.elf.dir/Drivers/Lib/font5x7.c.obj
 .debug_aranges
                0x0000000000000158       0x78 CMakeFiles/SnakeGame.elf.dir/Drivers/Lib/oled_driver.c.obj
 .debug_aranges
                0x00000000000001d0       0x70 CMakeFiles/SnakeGame.elf.dir/Drivers/Lib/xprintf.c.obj
 .debug_aranges
                0x0000000000000240       0x30 CMakeFiles/SnakeGame.elf.dir/Drivers/STM32F0xx_HAL_Driver/Src/stm32f0xx_ll_exti.c.obj
 .debug_aranges
                0x0000000000000270       0x30 CMakeFiles/SnakeGame.elf.dir/Drivers/STM32F0xx_HAL_Driver/Src/stm32f0xx_ll_gpio.c.obj
 .debug_aranges
                0x00000000000002a0       0x30 CMakeFiles/SnakeGame.elf.dir/Drivers/STM32F0xx_HAL_Driver/Src/stm32f0xx_ll_i2c.c.obj
 .debug_aranges
                0x00000000000002d0       0x60 CMakeFiles/SnakeGame.elf.dir/Drivers/STM32F0xx_HAL_Driver/Src/stm32f0xx_ll_utils.c.obj
 .debug_aranges
                0x0000000000000330       0x28 CMakeFiles/SnakeGame.elf.dir/startup/startup_stm32f051x8.s.obj

.debug_ranges   0x0000000000000000      0x2c0
 .debug_ranges  0x0000000000000000       0x58 CMakeFiles/SnakeGame.elf.dir/Core/Src/main.c.obj
 .debug_ranges  0x0000000000000058       0x30 CMakeFiles/SnakeGame.elf.dir/Core/Src/stm32f0xx_it.c.obj
 .debug_ranges  0x0000000000000088       0x18 CMakeFiles/SnakeGame.elf.dir/Core/Src/system_stm32f0xx.c.obj
 .debug_ranges  0x00000000000000a0       0x18 CMakeFiles/SnakeGame.elf.dir/Drivers/Lib/Point.c.obj
 .debug_ranges  0x00000000000000b8       0x60 CMakeFiles/SnakeGame.elf.dir/Drivers/Lib/Snake.c.obj
 .debug_ranges  0x0000000000000118       0x10 CMakeFiles/SnakeGame.elf.dir/Drivers/Lib/font5x7.c.obj
 .debug_ranges  0x0000000000000128       0x68 CMakeFiles/SnakeGame.elf.dir/Drivers/Lib/oled_driver.c.obj
 .debug_ranges  0x0000000000000190       0x60 CMakeFiles/SnakeGame.elf.dir/Drivers/Lib/xprintf.c.obj
 .debug_ranges  0x00000000000001f0       0x20 CMakeFiles/SnakeGame.elf.dir/Drivers/STM32F0xx_HAL_Driver/Src/stm32f0xx_ll_exti.c.obj
 .debug_ranges  0x0000000000000210       0x20 CMakeFiles/SnakeGame.elf.dir/Drivers/STM32F0xx_HAL_Driver/Src/stm32f0xx_ll_gpio.c.obj
 .debug_ranges  0x0000000000000230       0x20 CMakeFiles/SnakeGame.elf.dir/Drivers/STM32F0xx_HAL_Driver/Src/stm32f0xx_ll_i2c.c.obj
 .debug_ranges  0x0000000000000250       0x50 CMakeFiles/SnakeGame.elf.dir/Drivers/STM32F0xx_HAL_Driver/Src/stm32f0xx_ll_utils.c.obj
 .debug_ranges  0x00000000000002a0       0x20 CMakeFiles/SnakeGame.elf.dir/startup/startup_stm32f051x8.s.obj

.debug_line     0x0000000000000000     0x22bd
 .debug_line    0x0000000000000000      0x551 CMakeFiles/SnakeGame.elf.dir/Core/Src/main.c.obj
 .debug_line    0x0000000000000551      0x2b7 CMakeFiles/SnakeGame.elf.dir/Core/Src/stm32f0xx_it.c.obj
 .debug_line    0x0000000000000808      0x17a CMakeFiles/SnakeGame.elf.dir/Core/Src/system_stm32f0xx.c.obj
 .debug_line    0x0000000000000982      0x13c CMakeFiles/SnakeGame.elf.dir/Drivers/Lib/Point.c.obj
 .debug_line    0x0000000000000abe      0x281 CMakeFiles/SnakeGame.elf.dir/Drivers/Lib/Snake.c.obj
 .debug_line    0x0000000000000d3f      0x139 CMakeFiles/SnakeGame.elf.dir/Drivers/Lib/font5x7.c.obj
 .debug_line    0x0000000000000e78      0x4b8 CMakeFiles/SnakeGame.elf.dir/Drivers/Lib/oled_driver.c.obj
 .debug_line    0x0000000000001330      0x321 CMakeFiles/SnakeGame.elf.dir/Drivers/Lib/xprintf.c.obj
 .debug_line    0x0000000000001651      0x28d CMakeFiles/SnakeGame.elf.dir/Drivers/STM32F0xx_HAL_Driver/Src/stm32f0xx_ll_exti.c.obj
 .debug_line    0x00000000000018de      0x2af CMakeFiles/SnakeGame.elf.dir/Drivers/STM32F0xx_HAL_Driver/Src/stm32f0xx_ll_gpio.c.obj
 .debug_line    0x0000000000001b8d      0x271 CMakeFiles/SnakeGame.elf.dir/Drivers/STM32F0xx_HAL_Driver/Src/stm32f0xx_ll_i2c.c.obj
 .debug_line    0x0000000000001dfe      0x419 CMakeFiles/SnakeGame.elf.dir/Drivers/STM32F0xx_HAL_Driver/Src/stm32f0xx_ll_utils.c.obj
 .debug_line    0x0000000000002217       0xa6 CMakeFiles/SnakeGame.elf.dir/startup/startup_stm32f051x8.s.obj

.debug_str      0x0000000000000000     0x17be
 .debug_str     0x0000000000000000      0xbe3 CMakeFiles/SnakeGame.elf.dir/Core/Src/main.c.obj
                                        0xce7 (size before relaxing)
 .debug_str     0x0000000000000be3       0x88 CMakeFiles/SnakeGame.elf.dir/Core/Src/stm32f0xx_it.c.obj
                                        0x67f (size before relaxing)
 .debug_str     0x0000000000000c6b       0x83 CMakeFiles/SnakeGame.elf.dir/Core/Src/system_stm32f0xx.c.obj
                                        0x2b0 (size before relaxing)
 .debug_str     0x0000000000000cee       0x52 CMakeFiles/SnakeGame.elf.dir/Drivers/Lib/Point.c.obj
                                        0x617 (size before relaxing)
 .debug_str     0x0000000000000d40       0xa1 CMakeFiles/SnakeGame.elf.dir/Drivers/Lib/Snake.c.obj
                                        0x711 (size before relaxing)
 .debug_str     0x0000000000000de1       0x77 CMakeFiles/SnakeGame.elf.dir/Drivers/Lib/font5x7.c.obj
                                        0x5fe (size before relaxing)
 .debug_str     0x0000000000000e58      0x1aa CMakeFiles/SnakeGame.elf.dir/Drivers/Lib/oled_driver.c.obj
                                        0x842 (size before relaxing)
 .debug_str     0x0000000000001002       0xb6 CMakeFiles/SnakeGame.elf.dir/Drivers/Lib/xprintf.c.obj
                                        0x236 (size before relaxing)
 .debug_str     0x00000000000010b8      0x1a1 CMakeFiles/SnakeGame.elf.dir/Drivers/STM32F0xx_HAL_Driver/Src/stm32f0xx_ll_exti.c.obj
                                        0x3ee (size before relaxing)
 .debug_str     0x0000000000001259      0x11a CMakeFiles/SnakeGame.elf.dir/Drivers/STM32F0xx_HAL_Driver/Src/stm32f0xx_ll_gpio.c.obj
                                        0x42c (size before relaxing)
 .debug_str     0x0000000000001373      0x163 CMakeFiles/SnakeGame.elf.dir/Drivers/STM32F0xx_HAL_Driver/Src/stm32f0xx_ll_i2c.c.obj
                                        0x47b (size before relaxing)
 .debug_str     0x00000000000014d6      0x295 CMakeFiles/SnakeGame.elf.dir/Drivers/STM32F0xx_HAL_Driver/Src/stm32f0xx_ll_utils.c.obj
                                        0x654 (size before relaxing)
 .debug_str     0x000000000000176b       0x53 CMakeFiles/SnakeGame.elf.dir/startup/startup_stm32f051x8.s.obj
                                         0x8c (size before relaxing)

.comment        0x0000000000000000       0x7f
 .comment       0x0000000000000000       0x7f CMakeFiles/SnakeGame.elf.dir/Core/Src/main.c.obj
                                         0x80 (size before relaxing)
 .comment       0x000000000000007f       0x80 CMakeFiles/SnakeGame.elf.dir/Core/Src/stm32f0xx_it.c.obj
 .comment       0x000000000000007f       0x80 CMakeFiles/SnakeGame.elf.dir/Core/Src/system_stm32f0xx.c.obj
 .comment       0x000000000000007f       0x80 CMakeFiles/SnakeGame.elf.dir/Drivers/Lib/Point.c.obj
 .comment       0x000000000000007f       0x80 CMakeFiles/SnakeGame.elf.dir/Drivers/Lib/Snake.c.obj
 .comment       0x000000000000007f       0x80 CMakeFiles/SnakeGame.elf.dir/Drivers/Lib/font5x7.c.obj
 .comment       0x000000000000007f       0x80 CMakeFiles/SnakeGame.elf.dir/Drivers/Lib/oled_driver.c.obj
 .comment       0x000000000000007f       0x80 CMakeFiles/SnakeGame.elf.dir/Drivers/Lib/xprintf.c.obj
 .comment       0x000000000000007f       0x80 CMakeFiles/SnakeGame.elf.dir/Drivers/STM32F0xx_HAL_Driver/Src/stm32f0xx_ll_exti.c.obj
 .comment       0x000000000000007f       0x80 CMakeFiles/SnakeGame.elf.dir/Drivers/STM32F0xx_HAL_Driver/Src/stm32f0xx_ll_gpio.c.obj
 .comment       0x000000000000007f       0x80 CMakeFiles/SnakeGame.elf.dir/Drivers/STM32F0xx_HAL_Driver/Src/stm32f0xx_ll_i2c.c.obj
 .comment       0x000000000000007f       0x80 CMakeFiles/SnakeGame.elf.dir/Drivers/STM32F0xx_HAL_Driver/Src/stm32f0xx_ll_utils.c.obj

.debug_frame    0x0000000000000000      0x994
 .debug_frame   0x0000000000000000       0xcc CMakeFiles/SnakeGame.elf.dir/Core/Src/main.c.obj
 .debug_frame   0x00000000000000cc       0x60 CMakeFiles/SnakeGame.elf.dir/Core/Src/stm32f0xx_it.c.obj
 .debug_frame   0x000000000000012c       0x38 CMakeFiles/SnakeGame.elf.dir/Core/Src/system_stm32f0xx.c.obj
 .debug_frame   0x0000000000000164       0x40 CMakeFiles/SnakeGame.elf.dir/Drivers/Lib/Point.c.obj
 .debug_frame   0x00000000000001a4       0xe4 CMakeFiles/SnakeGame.elf.dir/Drivers/Lib/Snake.c.obj
 .debug_frame   0x0000000000000288       0x20 CMakeFiles/SnakeGame.elf.dir/Drivers/Lib/font5x7.c.obj
 .debug_frame   0x00000000000002a8      0x134 CMakeFiles/SnakeGame.elf.dir/Drivers/Lib/oled_driver.c.obj
 .debug_frame   0x00000000000003dc      0x158 CMakeFiles/SnakeGame.elf.dir/Drivers/Lib/xprintf.c.obj
 .debug_frame   0x0000000000000534       0x48 CMakeFiles/SnakeGame.elf.dir/Drivers/STM32F0xx_HAL_Driver/Src/stm32f0xx_ll_exti.c.obj
 .debug_frame   0x000000000000057c       0x50 CMakeFiles/SnakeGame.elf.dir/Drivers/STM32F0xx_HAL_Driver/Src/stm32f0xx_ll_gpio.c.obj
 .debug_frame   0x00000000000005cc       0x4c CMakeFiles/SnakeGame.elf.dir/Drivers/STM32F0xx_HAL_Driver/Src/stm32f0xx_ll_i2c.c.obj
 .debug_frame   0x0000000000000618       0xe0 CMakeFiles/SnakeGame.elf.dir/Drivers/STM32F0xx_HAL_Driver/Src/stm32f0xx_ll_utils.c.obj
 .debug_frame   0x00000000000006f8       0x20 /usr/bin/../lib/gcc/arm-none-eabi/7.3.1/thumb/v6-m/libgcc.a(_udivsi3.o)
 .debug_frame   0x0000000000000718       0x20 /usr/bin/../lib/gcc/arm-none-eabi/7.3.1/thumb/v6-m/libgcc.a(_divsi3.o)
 .debug_frame   0x0000000000000738       0x2c /usr/bin/../lib/gcc/arm-none-eabi/7.3.1/../../../../arm-none-eabi/lib/thumb/v6-m/libg.a(lib_a-init.o)
 .debug_frame   0x0000000000000764       0x30 /usr/bin/../lib/gcc/arm-none-eabi/7.3.1/../../../../arm-none-eabi/lib/thumb/v6-m/libg.a(lib_a-memset.o)
 .debug_frame   0x0000000000000794       0x38 /usr/bin/../lib/gcc/arm-none-eabi/7.3.1/../../../../arm-none-eabi/lib/thumb/v6-m/libg.a(lib_a-rand.o)
 .debug_frame   0x00000000000007cc       0x54 /usr/bin/../lib/gcc/arm-none-eabi/7.3.1/../../../../arm-none-eabi/lib/thumb/v6-m/libg.a(lib_a-__call_atexit.o)
 .debug_frame   0x0000000000000820       0x28 /usr/bin/../lib/gcc/arm-none-eabi/7.3.1/../../../../arm-none-eabi/lib/thumb/v6-m/libg.a(lib_a-atexit.o)
 .debug_frame   0x0000000000000848       0x2c /usr/bin/../lib/gcc/arm-none-eabi/7.3.1/../../../../arm-none-eabi/lib/thumb/v6-m/libg.a(lib_a-fini.o)
 .debug_frame   0x0000000000000874       0xb0 /usr/bin/../lib/gcc/arm-none-eabi/7.3.1/../../../../arm-none-eabi/lib/thumb/v6-m/libg.a(lib_a-lock.o)
 .debug_frame   0x0000000000000924       0x3c /usr/bin/../lib/gcc/arm-none-eabi/7.3.1/../../../../arm-none-eabi/lib/thumb/v6-m/libg.a(lib_a-__atexit.o)
 .debug_frame   0x0000000000000960       0x34 /usr/bin/../lib/gcc/arm-none-eabi/7.3.1/thumb/v6-m/libgcc.a(_muldi3.o)
